(lp0
(dp1
I1
(dp2
S'a'
p3
F0.008631660583921914
sS'k12'
p4
F0.4842412101321654
sS'b'
p5
F1.9730974256678515
sS'zrS'
p6
F50.0
sS'zrR'
p7
F616.3707485602571
sS'f'
p8
F0.4007396889112831
sS'res2'
p9
F1.0
sS's0R'
p10
F0.2995586497280823
sS'res1'
p11
F1.0
sS'storageR'
p12
F100.0
sS'gz'
p13
cgroundwaterZone
LinearToNonlinearReservoir
p14
sS's0S'
p15
F0.19
sS'k1'
p16
F0.386675211517147
sS'eta'
p17
F0.9958274327903414
sS'stR'
p18
F0.554368385003578
sS'stS'
p19
F0.6
sS'alpha'
p20
F0.5551256413093483
sS'nR'
p21
F0.20587313453053158
sS'nS'
p22
F0.4
sS'storageS'
p23
F1.0
sS'vz'
p24
cvadoseZone
PreferentialRockMoistureZone
p25
ssa(dp26
I1
(dp27
g3
F0.0015070130489736983
sg4
F0.4610091861086855
sg5
F2.3442691153315702
sg6
F50.0
sg7
F822.0928053144194
sg8
F0.6490526510637977
sg9
F1.0
sg10
F0.06120919197401742
sg11
F1.0
sg12
F100.0
sg13
g14
sg15
F0.19
sg16
F0.38026554239285976
sg17
F0.9552187615844675
sg18
F0.17756226190819
sg19
F0.6
sg20
F0.5968639201990718
sg21
F0.3142284661699122
sg22
F0.4
sg23
F1.0
sg24
g25
ssa(dp28
I1
(dp29
g3
F0.0038468785515259206
sg4
F0.3539794600292431
sg5
F2.094218080428068
sg6
F50.0
sg7
F670.7010758151849
sg8
F0.6671770524578047
sg9
F1.0
sg10
F0.03915460328113558
sg11
F1.0
sg12
F100.0
sg13
g14
sg15
F0.19
sg16
F0.3695883729071877
sg17
F0.9242438652152294
sg18
F0.6774363586073492
sg19
F0.6
sg20
F0.38914058870141255
sg21
F0.24938375867181606
sg22
F0.4
sg23
F1.0
sg24
g25
ssa(dp30
I1
(dp31
g3
F0.007855510520274913
sg4
F0.30815152621660113
sg5
F1.997645400448975
sg6
F50.0
sg7
F801.4168768098361
sg8
F0.3082765524580027
sg9
F1.0
sg10
F0.10218710694339204
sg11
F1.0
sg12
F100.0
sg13
g14
sg15
F0.19
sg16
F0.3850287679408637
sg17
F0.899061089533901
sg18
F0.3184478263433398
sg19
F0.6
sg20
F0.5809648495653316
sg21
F0.19825451456299967
sg22
F0.4
sg23
F1.0
sg24
g25
ssa(dp32
I1
(dp33
g3
F0.003820554035960621
sg4
F0.47645294966225793
sg5
F2.299483425078381
sg6
F50.0
sg7
F531.9711424197664
sg8
F0.6279441550259788
sg9
F1.0
sg10
F0.10211350246367479
sg11
F1.0
sg12
F100.0
sg13
g14
sg15
F0.19
sg16
F0.3474267379546736
sg17
F0.802086435051422
sg18
F0.7825915355556332
sg19
F0.6
sg20
F0.3995705972941745
sg21
F0.3570221089597118
sg22
F0.4
sg23
F1.0
sg24
g25
ssa(dp34
I1
(dp35
g3
F0.0019223616736536143
sg4
F0.3604036147868792
sg5
F2.461697389180433
sg6
F50.0
sg7
F658.2308930611078
sg8
F0.4994769332728881
sg9
F1.0
sg10
F0.31696203249432664
sg11
F1.0
sg12
F100.0
sg13
g14
sg15
F0.19
sg16
F0.3362730046441972
sg17
F0.8356918753902987
sg18
F0.6926348892579597
sg19
F0.6
sg20
F0.37038035141518516
sg21
F0.21800140353051098
sg22
F0.4
sg23
F1.0
sg24
g25
ssa(dp36
I1
(dp37
g3
F0.0024141854965081914
sg4
F0.34436365682071723
sg5
F2.269099879033002
sg6
F50.0
sg7
F702.0801599672889
sg8
F0.4276216613887156
sg9
F1.0
sg10
F0.27167246324028693
sg11
F1.0
sg12
F100.0
sg13
g14
sg15
F0.19
sg16
F0.360813762410954
sg17
F0.9108970233475735
sg18
F0.44253916046478403
sg19
F0.6
sg20
F0.48285048243564455
sg21
F0.30624428064278614
sg22
F0.4
sg23
F1.0
sg24
g25
ssa(dp38
I1
(dp39
g3
F0.00905073851479601
sg4
F0.3258703234911306
sg5
F2.0761881996746174
sg6
F50.0
sg7
F834.8667579507223
sg8
F0.40406325032468593
sg9
F1.0
sg10
F0.2671606753393922
sg11
F1.0
sg12
F100.0
sg13
g14
sg15
F0.19
sg16
F0.3533191947982022
sg17
F0.9719298827211807
sg18
F0.8316889055892717
sg19
F0.6
sg20
F0.5416849127010248
sg21
F0.06583530491216392
sg22
F0.4
sg23
F1.0
sg24
g25
ssa(dp40
I1
(dp41
g3
F0.007172864393879239
sg4
F0.3232260580138096
sg5
F1.8925969382017365
sg6
F50.0
sg7
F609.5476665994249
sg8
F0.18288297826838243
sg9
F1.0
sg10
F0.3397198661097912
sg11
F1.0
sg12
F100.0
sg13
g14
sg15
F0.19
sg16
F0.3162458799827117
sg17
F0.9070190015874752
sg18
F0.525341402298247
sg19
F0.6
sg20
F0.4244829854977082
sg21
F0.30409357765984024
sg22
F0.4
sg23
F1.0
sg24
g25
ssa(dp42
I1
(dp43
g3
F0.003073844352623078
sg4
F0.39859365505618644
sg5
F2.299803576515943
sg6
F50.0
sg7
F895.3812377114382
sg8
F0.6167224069483425
sg9
F1.0
sg10
F0.31784993734425876
sg11
F1.0
sg12
F100.0
sg13
g14
sg15
F0.19
sg16
F0.37248888209748643
sg17
F0.807706643360689
sg18
F0.7665951823242668
sg19
F0.6
sg20
F0.36567585968602934
sg21
F0.35809408302964657
sg22
F0.4
sg23
F1.0
sg24
g25
ssa(dp44
I1
(dp45
g3
F0.003275781589428097
sS'k12'
p46
F0.4016745157163582
sg5
F2.306911044730048
sS'zrS'
p47
F50.0
sS'zrR'
p48
F881.6169553461464
sg8
F0.5436477405185218
sS'res2'
p49
F1.0
sS's0R'
p50
F0.31057302936609205
sS'res1'
p51
F1.0
sS'storageR'
p52
F100.0
sS'gz'
p53
g14
sS's0S'
p54
F0.19
sS'k1'
p55
F0.3232240302549255
sS'eta'
p56
F0.873173964937323
sS'stR'
p57
F0.46078267039426624
sS'stS'
p58
F0.6
sS'alpha'
p59
F0.4921051569544907
sS'nR'
p60
F0.34432496497245996
sS'nS'
p61
F0.4
sS'storageS'
p62
F1.0
sS'vz'
p63
g25
ssa(dp64
I1
(dp65
g3
F0.0026000328584804143
sg46
F0.44424816940928225
sg5
F2.4523302219052137
sg47
F50.0
sg48
F1044.6572766386075
sg8
F0.7009990832330247
sg49
F1.0
sg50
F0.21427644914305877
sg51
F1.0
sg52
F100.0
sg53
g14
sg54
F0.19
sg55
F0.33054133401138863
sg56
F0.9980536679813278
sg57
F0.5041536018234135
sg58
F0.6
sg59
F0.35807038316059653
sg60
F0.3829739976035028
sg61
F0.4
sg62
F1.0
sg63
g25
ssa(dp66
I1
(dp67
g3
F0.008250070593733453
sg46
F0.38850780707373406
sg5
F2.1111163327225095
sg47
F50.0
sg48
F977.2802285844372
sg8
F0.3132292696966601
sg49
F1.0
sg50
F0.09532849067994037
sg51
F1.0
sg52
F100.0
sg53
g14
sg54
F0.19
sg55
F0.3773101669427576
sg56
F0.9567808110362568
sg57
F0.25997071182020665
sg58
F0.6
sg59
F0.5518118127796867
sg60
F0.21787947542841468
sg61
F0.4
sg62
F1.0
sg63
g25
ssa(dp68
I1
(dp69
g3
F0.003330001477033028
sg46
F0.3152642770621924
sg5
F2.3464020137077894
sg47
F50.0
sg48
F615.8989239085129
sg8
F0.6962126005616689
sg49
F1.0
sg50
F0.004967723168818417
sg51
F1.0
sg52
F100.0
sg53
g14
sg54
F0.19
sg55
F0.34173064514443685
sg56
F0.9935941643760071
sg57
F0.8172254816517538
sg58
F0.6
sg59
F0.48879895958968084
sg60
F0.10194643930264492
sg61
F0.4
sg62
F1.0
sg63
g25
ssa(dp70
I1
(dp71
g3
F0.009023698042007594
sg46
F0.31310714128544764
sg5
F1.9377135507289964
sg47
F50.0
sg48
F1067.4013633063878
sg8
F0.43317441759781417
sg49
F1.0
sg50
F0.31823248023661277
sg51
F1.0
sg52
F100.0
sg53
g14
sg54
F0.19
sg55
F0.33475705311698656
sg56
F0.9843287748181454
sg57
F0.4440107250121831
sg58
F0.6
sg59
F0.5857393802574478
sg60
F0.23245027484429376
sg61
F0.4
sg62
F1.0
sg63
g25
ssa(dp72
I1
(dp73
g3
F0.008085842580360813
sg46
F0.4968505532642096
sg5
F2.0261835234415573
sg47
F50.0
sg48
F956.9787103197889
sg8
F0.6949902638843055
sg49
F1.0
sg50
F0.2710937809822407
sg51
F1.0
sg52
F100.0
sg53
g14
sg54
F0.19
sg55
F0.39785685011458893
sg56
F0.9289841475159177
sg57
F0.6946423163144504
sg58
F0.6
sg59
F0.4797844984834521
sg60
F0.21419404136944578
sg61
F0.4
sg62
F1.0
sg63
g25
ssa(dp74
I1
(dp75
g3
F0.008726314896494022
sg46
F0.32676415789395435
sg5
F1.871844384125447
sg47
F50.0
sg48
F560.3055380590777
sg8
F0.5224777515846195
sg49
F1.0
sg50
F0.05038505097119664
sg51
F1.0
sg52
F100.0
sg53
g14
sg54
F0.19
sg55
F0.3388096222441944
sg56
F0.7862287245257067
sg57
F0.659509858811264
sg58
F0.6
sg59
F0.4229502508603521
sg60
F0.16774197300790408
sg61
F0.4
sg62
F1.0
sg63
g25
ssa(dp76
I1
(dp77
g3
F0.0030713123230275818
sg46
F0.3657937866426346
sg5
F2.1948337266107183
sg47
F50.0
sg48
F815.768935735518
sg8
F0.6294125839331379
sg49
F1.0
sg50
F0.04638737817886445
sg51
F1.0
sg52
F100.0
sg53
g14
sg54
F0.19
sg55
F0.32453458050279993
sg56
F0.9292806197435433
sg57
F0.42521310088469044
sg58
F0.6
sg59
F0.3723907935416408
sg60
F0.21666672449080127
sg61
F0.4
sg62
F1.0
sg63
g25
ssa(dp78
I1
(dp79
g3
F0.008539866501539423
sg46
F0.37730998461456305
sg5
F1.9966658816462588
sg47
F50.0
sg48
F1156.5160903924957
sg8
F0.6741744925580115
sg49
F1.0
sg50
F0.10389865469210187
sg51
F1.0
sg52
F100.0
sg53
g14
sg54
F0.19
sg55
F0.32474875711755424
sg56
F0.8906299293824498
sg57
F0.6334776176238615
sg58
F0.6
sg59
F0.36485913743777976
sg60
F0.2894824800814943
sg61
F0.4
sg62
F1.0
sg63
g25
ssa(dp80
I1
(dp81
g3
F0.002347435101104854
sg46
F0.315949769591974
sg5
F2.2889890333515504
sg47
F50.0
sg48
F1144.0346893909025
sg8
F0.5307486281026869
sg49
F1.0
sg50
F0.016280581690423058
sg51
F1.0
sg52
F100.0
sg53
g14
sg54
F0.19
sg55
F0.34554032270862645
sg56
F0.9908218331117042
sg57
F0.25087555961948627
sg58
F0.6
sg59
F0.43842162222387954
sg60
F0.17208570383458727
sg61
F0.4
sg62
F1.0
sg63
g25
ssa(dp82
I1
(dp83
g3
F0.0041580353041528895
sS'k12'
p84
F0.34776442779083055
sg5
F2.153669442541821
sS'zrS'
p85
F50.0
sS'zrR'
p86
F532.658351145604
sg8
F0.6603157224545808
sS'res2'
p87
F1.0
sS's0R'
p88
F0.3014254022195662
sS'res1'
p89
F1.0
sS'storageR'
p90
F100.0
sS'gz'
p91
g14
sS's0S'
p92
F0.19
sS'k1'
p93
F0.30384751319800163
sS'eta'
p94
F0.9394038900195747
sS'stR'
p95
F0.810797300801117
sS'stS'
p96
F0.6
sS'alpha'
p97
F0.3867153839554745
sS'nR'
p98
F0.3288434572868355
sS'nS'
p99
F0.4
sS'storageS'
p100
F1.0
sS'vz'
p101
g25
ssa(dp102
I1
(dp103
g3
F0.0048641037347430215
sg84
F0.47139209362748213
sg5
F2.086473153598635
sg85
F50.0
sg86
F565.8238610220142
sg8
F0.631100549770958
sg87
F1.0
sg88
F0.04448853125521284
sg89
F1.0
sg90
F100.0
sg91
g14
sg92
F0.19
sg93
F0.35752057943379895
sg94
F0.9326051549614056
sg95
F0.4608189912254116
sg96
F0.6
sg97
F0.5584758862485114
sg98
F0.1914575832004001
sg99
F0.4
sg100
F1.0
sg101
g25
ssa(dp104
I1
(dp105
g3
F0.005579977069173398
sg84
F0.44277238091195037
sg5
F2.0203790665962864
sg85
F50.0
sg86
F1032.1459545696362
sg8
F0.48084699750180315
sg87
F1.0
sg88
F0.3794605137204199
sg89
F1.0
sg90
F100.0
sg91
g14
sg92
F0.19
sg93
F0.3630378177309521
sg94
F0.9646637604721896
sg95
F0.5618504814226739
sg96
F0.6
sg97
F0.5689683198679738
sg98
F0.17373567099355344
sg99
F0.4
sg100
F1.0
sg101
g25
ssa(dp106
I1
(dp107
g3
F0.0019773587010027175
sg84
F0.3400351257263308
sg5
F2.3251840587382056
sg85
F50.0
sg86
F806.0922025762222
sg8
F0.6541222618898377
sg87
F1.0
sg88
F0.006820853575540742
sg89
F1.0
sg90
F100.0
sg91
g14
sg92
F0.19
sg93
F0.2966798269853901
sg94
F0.8967867913480773
sg95
F0.33157908080991605
sg96
F0.6
sg97
F0.5362759700461543
sg98
F0.1792533709428652
sg99
F0.4
sg100
F1.0
sg101
g25
ssa(dp108
I1
(dp109
g3
F0.004505705978782996
sg84
F0.35206490392212736
sg5
F2.1676637812401256
sg85
F50.0
sg86
F948.453895251436
sg8
F0.6797572567111346
sg87
F1.0
sg88
F0.25684483046944584
sg89
F1.0
sg90
F100.0
sg91
g14
sg92
F0.19
sg93
F0.3646670447669456
sg94
F0.9914248168965103
sg95
F0.7500773483310789
sg96
F0.6
sg97
F0.435531456041939
sg98
F0.20309092008992366
sg99
F0.4
sg100
F1.0
sg101
g25
ssa(dp110
I1
(dp111
g3
F0.005564716629793328
sg84
F0.4984980444301862
sg5
F2.2223561280487196
sg85
F50.0
sg86
F658.9647937830168
sg8
F0.6357024155073278
sg87
F1.0
sg88
F0.06133627838266845
sg89
F1.0
sg90
F100.0
sg91
g14
sg92
F0.19
sg93
F0.3892678377725991
sg94
F0.9851487997836479
sg95
F0.44220835307911466
sg96
F0.6
sg97
F0.4364147919256673
sg98
F0.24876541424474563
sg99
F0.4
sg100
F1.0
sg101
g25
ssa(dp112
I1
(dp113
g3
F0.0030140944272999577
sg84
F0.31546549183410044
sg5
F2.164783997847681
sg85
F50.0
sg86
F1180.8749763236533
sg8
F0.5924621910925305
sg87
F1.0
sg88
F0.27133191371678483
sg89
F1.0
sg90
F100.0
sg91
g14
sg92
F0.19
sg93
F0.37223555993589985
sg94
F0.8487579333832407
sg95
F0.604163599230807
sg96
F0.6
sg97
F0.3714931300317946
sg98
F0.21257068477293828
sg99
F0.4
sg100
F1.0
sg101
g25
ssa(dp114
I1
(dp115
g3
F0.005570297431971143
sg84
F0.3483672696972881
sg5
F1.931420041080739
sg85
F50.0
sg86
F1184.2431691230383
sg8
F0.5798888604586242
sg87
F1.0
sg88
F0.16029493332319153
sg89
F1.0
sg90
F100.0
sg91
g14
sg92
F0.19
sg93
F0.3213192268579036
sg94
F0.7868266291624091
sg95
F0.5817595925664237
sg96
F0.6
sg97
F0.38846110502000725
sg98
F0.1593637678657984
sg99
F0.4
sg100
F1.0
sg101
g25
ssa(dp116
I1
(dp117
g3
F0.00723575524396811
sg84
F0.4602946140499296
sg5
F2.1500052550620428
sg85
F50.0
sg86
F1141.5684766245422
sg8
F0.6355771856315136
sg87
F1.0
sg88
F0.11296171109807207
sg89
F1.0
sg90
F100.0
sg91
g14
sg92
F0.19
sg93
F0.3864795100816709
sg94
F0.9677386450758017
sg95
F0.30315883698596513
sg96
F0.6
sg97
F0.4418109309636605
sg98
F0.32452621017054617
sg99
F0.4
sg100
F1.0
sg101
g25
ssa(dp118
I1
(dp119
g3
F0.004580970873796107
sg84
F0.49087601563948746
sg5
F2.240515428177145
sg85
F50.0
sg86
F715.8119912966152
sg8
F0.5356938755581705
sg87
F1.0
sg88
F0.04821635738663641
sg89
F1.0
sg90
F100.0
sg91
g14
sg92
F0.19
sg93
F0.3717183763799345
sg94
F0.8384368206138094
sg95
F0.38606652452436363
sg96
F0.6
sg97
F0.476893231932083
sg98
F0.2288258078194024
sg99
F0.4
sg100
F1.0
sg101
g25
ssa(dp120
I1
(dp121
g3
F0.0030825031866661546
sS'k12'
p122
F0.46161364169079266
sg5
F2.322694490151387
sS'zrS'
p123
F50.0
sS'zrR'
p124
F1131.6734272532535
sg8
F0.7037835950326337
sS'res2'
p125
F1.0
sS's0R'
p126
F0.07727262746125435
sS'res1'
p127
F1.0
sS'storageR'
p128
F100.0
sS'gz'
p129
g14
sS's0S'
p130
F0.19
sS'k1'
p131
F0.35008825336500204
sS'eta'
p132
F0.9043189126759179
sS'stR'
p133
F0.6666818427376432
sS'stS'
p134
F0.6
sS'alpha'
p135
F0.3988123928895537
sS'nR'
p136
F0.3928084522086589
sS'nS'
p137
F0.4
sS'storageS'
p138
F1.0
sS'vz'
p139
g25
ssa(dp140
I1
(dp141
g3
F0.00856291717939472
sg122
F0.31679279133132715
sg5
F2.0095225686216356
sg123
F50.0
sg124
F590.1272142538679
sg8
F0.4560751205647836
sg125
F1.0
sg126
F0.09633862976312867
sg127
F1.0
sg128
F100.0
sg129
g14
sg130
F0.19
sg131
F0.34237763453314446
sg132
F0.9235560104428582
sg133
F0.41957327412169343
sg134
F0.6
sg135
F0.5396060687293309
sg136
F0.19898024879517143
sg137
F0.4
sg138
F1.0
sg139
g25
ssa(dp142
I1
(dp143
g3
F0.002282483968584831
sg122
F0.4122710349990279
sg5
F2.338869945572805
sg123
F50.0
sg124
F1051.7762217383888
sg8
F0.7360060214664695
sg125
F1.0
sg126
F0.13729098368778164
sg127
F1.0
sg128
F100.0
sg129
g14
sg130
F0.19
sg131
F0.3572759381178412
sg132
F0.9620059749120264
sg133
F0.59795522006651
sg134
F0.6
sg135
F0.38070832993249965
sg136
F0.38350150062904326
sg137
F0.4
sg138
F1.0
sg139
g25
ssa(dp144
I1
(dp145
g3
F0.004488959707687335
sg122
F0.30429637553919003
sg5
F2.2044276084854677
sg123
F50.0
sg124
F745.2871854089796
sg8
F0.6306950678906864
sg125
F1.0
sg126
F0.022979021440943062
sg127
F1.0
sg128
F100.0
sg129
g14
sg130
F0.19
sg131
F0.2914153206312298
sg132
F0.9939515860915963
sg133
F0.2676053739699311
sg134
F0.6
sg135
F0.46996528130071885
sg136
F0.2187547493104823
sg137
F0.4
sg138
F1.0
sg139
g25
ssa(dp146
I1
(dp147
g3
F0.002919452630759451
sg122
F0.3478226891490247
sg5
F2.3216993056734987
sg123
F50.0
sg124
F992.8017931775523
sg8
F0.24766962134142576
sg125
F1.0
sg126
F0.14700123322958633
sg127
F1.0
sg128
F100.0
sg129
g14
sg130
F0.19
sg131
F0.37366499642862655
sg132
F0.8553404583925232
sg133
F0.33798009167949716
sg134
F0.6
sg135
F0.4532939728742013
sg136
F0.1945169866025474
sg137
F0.4
sg138
F1.0
sg139
g25
ssa(dp148
I1
(dp149
g3
F0.005911143553189155
sg122
F0.3098815521211284
sg5
F2.008467655575022
sg123
F50.0
sg124
F549.3684209637785
sg8
F0.719781742931492
sg125
F1.0
sg126
F0.08931370149723757
sg127
F1.0
sg128
F100.0
sg129
g14
sg130
F0.19
sg131
F0.3600001096582035
sg132
F0.9950588180457605
sg133
F0.6426138864851942
sg134
F0.6
sg135
F0.3561016520337416
sg136
F0.3503680216933684
sg137
F0.4
sg138
F1.0
sg139
g25
ssa(dp150
I1
(dp151
g3
F0.004575740625386819
sg122
F0.3023115660635585
sg5
F1.977948429880032
sg123
F50.0
sg124
F930.9787239818147
sg8
F0.7517710554402174
sg125
F1.0
sg126
F0.3311015009868614
sg127
F1.0
sg128
F100.0
sg129
g14
sg130
F0.19
sg131
F0.30488919310517265
sg132
F0.9924711676233833
sg133
F0.6967696391485095
sg134
F0.6
sg135
F0.3965476406892379
sg136
F0.3632889520498445
sg137
F0.4
sg138
F1.0
sg139
g25
ssa(dp152
I1
(dp153
g3
F0.002221137328628468
sg122
F0.4734450787439068
sg5
F2.3470294873826028
sg123
F50.0
sg124
F908.8108841674293
sg8
F0.6761515786292498
sg125
F1.0
sg126
F0.06835269581386437
sg127
F1.0
sg128
F100.0
sg129
g14
sg130
F0.19
sg131
F0.3711392772772727
sg132
F0.8100209295403754
sg133
F0.834654604303365
sg134
F0.6
sg135
F0.36590415654238273
sg136
F0.3985647023610817
sg137
F0.4
sg138
F1.0
sg139
g25
ssa(dp154
I1
(dp155
g3
F0.009860967987042694
sg122
F0.32059639321043437
sg5
F1.8511691100517915
sg123
F50.0
sg124
F758.8958242190478
sg8
F0.5246477559227677
sg125
F1.0
sg126
F0.01031210516179537
sg127
F1.0
sg128
F100.0
sg129
g14
sg130
F0.19
sg131
F0.3277705932149123
sg132
F0.9322507970403547
sg133
F0.2194750555943375
sg134
F0.6
sg135
F0.41393449522618364
sg136
F0.30162628223624993
sg137
F0.4
sg138
F1.0
sg139
g25
ssa(dp156
I1
(dp157
g3
F0.009956680074486694
sg122
F0.3275076179044359
sg5
F1.877233764410796
sg123
F50.0
sg124
F779.7913168497901
sg8
F0.5884858210296525
sg125
F1.0
sg126
F0.08196863868319029
sg127
F1.0
sg128
F100.0
sg129
g14
sg130
F0.19
sg131
F0.3012955222861447
sg132
F0.8778907969954745
sg133
F0.5035916478700279
sg134
F0.6
sg135
F0.5799498482591897
sg136
F0.11657420120092213
sg137
F0.4
sg138
F1.0
sg139
g25
ssa(dp158
I1
(dp159
g3
F0.004481628186267943
sS'k12'
p160
F0.3505381078971371
sg5
F2.2575049947915993
sS'zrS'
p161
F50.0
sS'zrR'
p162
F648.0759138225799
sg8
F0.5514401100709326
sS'res2'
p163
F1.0
sS's0R'
p164
F0.08949852880761991
sS'res1'
p165
F1.0
sS'storageR'
p166
F100.0
sS'gz'
p167
g14
sS's0S'
p168
F0.19
sS'k1'
p169
F0.3588370692192677
sS'eta'
p170
F0.8909307030770288
sS'stR'
p171
F0.3010494630313447
sS'stS'
p172
F0.6
sS'alpha'
p173
F0.47093453316034606
sS'nR'
p174
F0.3540602525011803
sS'nS'
p175
F0.4
sS'storageS'
p176
F1.0
sS'vz'
p177
g25
ssa(dp178
I1
(dp179
g3
F0.003448983707656423
sg160
F0.352209459779575
sg5
F2.237384633812094
sg161
F50.0
sg162
F656.0457573995113
sg8
F0.27684800444409935
sg163
F1.0
sg164
F0.02759347126655234
sg165
F1.0
sg166
F100.0
sg167
g14
sg168
F0.19
sg169
F0.3545489828034301
sg170
F0.8825431483830857
sg171
F0.2954682723890403
sg172
F0.6
sg173
F0.5140964050684892
sg174
F0.20192564507477243
sg175
F0.4
sg176
F1.0
sg177
g25
ssa(dp180
I1
(dp181
g3
F0.009856100453456742
sg160
F0.4601517469588512
sg5
F2.0112866043190265
sg161
F50.0
sg162
F810.3782595496909
sg8
F0.41951724359096754
sg163
F1.0
sg164
F0.2874134813324475
sg165
F1.0
sg166
F100.0
sg167
g14
sg168
F0.19
sg169
F0.35073148374565033
sg170
F0.9025947259896672
sg171
F0.433807927713146
sg172
F0.6
sg173
F0.5044421077205312
sg174
F0.3087887677359494
sg175
F0.4
sg176
F1.0
sg177
g25
ssa(dp182
I1
(dp183
g3
F0.0036397891580057947
sg160
F0.371865784910143
sg5
F2.3676771369485103
sg161
F50.0
sg162
F563.0879054539218
sg8
F0.4039981264047815
sg163
F1.0
sg164
F0.17244529800460884
sg165
F1.0
sg166
F100.0
sg167
g14
sg168
F0.19
sg169
F0.38216878708083657
sg170
F0.9148009441860214
sg171
F0.5156087867649206
sg172
F0.6
sg173
F0.4752595360223765
sg174
F0.20542962840130533
sg175
F0.4
sg176
F1.0
sg177
g25
ssa(dp184
I1
(dp185
g3
F0.004721222530217027
sg160
F0.3100024118479748
sg5
F2.3472379257776295
sg161
F50.0
sg162
F926.4483316674089
sg8
F0.6827151013135876
sg163
F1.0
sg164
F0.3397447138918671
sg165
F1.0
sg166
F100.0
sg167
g14
sg168
F0.19
sg169
F0.3556182555226785
sg170
F0.9761846259665454
sg171
F0.7579973874994917
sg172
F0.6
sg173
F0.38122592077716005
sg174
F0.2152280965274812
sg175
F0.4
sg176
F1.0
sg177
g25
ssa(dp186
I1
(dp187
g3
F0.00403644688375656
sg160
F0.3916991589757993
sg5
F2.3508229834812244
sg161
F50.0
sg162
F644.2668389357273
sg8
F0.6693485019422802
sg163
F1.0
sg164
F0.1158868185251572
sg165
F1.0
sg166
F100.0
sg167
g14
sg168
F0.19
sg169
F0.34819773365262163
sg170
F0.9553886579680374
sg171
F0.4216697427695719
sg172
F0.6
sg173
F0.38353145773535224
sg174
F0.32867139557727404
sg175
F0.4
sg176
F1.0
sg177
g25
ssa(dp188
I1
(dp189
g3
F0.003915140877627931
sg160
F0.32060241732887446
sg5
F2.194997528486561
sg161
F50.0
sg162
F1150.496116157669
sg8
F0.5166133132339871
sg163
F1.0
sg164
F0.12311332245424196
sg165
F1.0
sg166
F100.0
sg167
g14
sg168
F0.19
sg169
F0.349239550103242
sg170
F0.9854828853867637
sg171
F0.22385470925151402
sg172
F0.6
sg173
F0.3330709551139525
sg174
F0.3932858367913008
sg175
F0.4
sg176
F1.0
sg177
g25
ssa(dp190
I1
(dp191
g3
F0.0034023346962674906
sg160
F0.4868359717207736
sg5
F2.288395652419147
sg161
F50.0
sg162
F735.6953216273755
sg8
F0.573506884564844
sg163
F1.0
sg164
F0.2786718417179464
sg165
F1.0
sg166
F100.0
sg167
g14
sg168
F0.19
sg169
F0.3903728357392895
sg170
F0.9299352207007321
sg171
F0.7194454164350051
sg172
F0.6
sg173
F0.434670274196476
sg174
F0.12302657310309095
sg175
F0.4
sg176
F1.0
sg177
g25
ssa(dp192
I1
(dp193
g3
F0.006001223758587464
sg160
F0.3217484592374725
sg5
F2.157664160724698
sg161
F50.0
sg162
F1039.007599775841
sg8
F0.4763635736967937
sg163
F1.0
sg164
F0.11498121771487307
sg165
F1.0
sg166
F100.0
sg167
g14
sg168
F0.19
sg169
F0.33480893587985017
sg170
F0.8158600914370726
sg171
F0.47209395004122434
sg172
F0.6
sg173
F0.41959590616747533
sg174
F0.15736696447225726
sg175
F0.4
sg176
F1.0
sg177
g25
ssa(dp194
I1
(dp195
g3
F0.0028689162814696935
sg160
F0.43463093338628317
sg5
F2.3467303947113916
sg161
F50.0
sg162
F1132.3185092378162
sg8
F0.39542577650707367
sg163
F1.0
sg164
F0.20202040079574313
sg165
F1.0
sg166
F100.0
sg167
g14
sg168
F0.19
sg169
F0.32296310767935543
sg170
F0.8874258570420419
sg171
F0.5518279934235285
sg172
F0.6
sg173
F0.5298871896274957
sg174
F0.08837022118423311
sg175
F0.4
sg176
F1.0
sg177
g25
ssa(dp196
I1
(dp197
g3
F0.007035488046323731
sS'k12'
p198
F0.3243739672750355
sg5
F2.0137568583437853
sS'zrS'
p199
F50.0
sS'zrR'
p200
F1195.0444037307848
sg8
F0.6365611326141193
sS'res2'
p201
F1.0
sS's0R'
p202
F0.21699434181141558
sS'res1'
p203
F1.0
sS'storageR'
p204
F100.0
sS'gz'
p205
g14
sS's0S'
p206
F0.19
sS'k1'
p207
F0.33053095283027567
sS'eta'
p208
F0.9788405110176487
sS'stR'
p209
F0.5810090286773103
sS'stS'
p210
F0.6
sS'alpha'
p211
F0.41481874869748225
sS'nR'
p212
F0.13170099027856788
sS'nS'
p213
F0.4
sS'storageS'
p214
F1.0
sS'vz'
p215
g25
ssa(dp216
I1
(dp217
g3
F0.007607230433021885
sg198
F0.4008068847175255
sg5
F2.0468835423195655
sg199
F50.0
sg200
F704.9780305821595
sg8
F0.40930472323493894
sg201
F1.0
sg202
F0.2422520105305667
sg203
F1.0
sg204
F100.0
sg205
g14
sg206
F0.19
sg207
F0.3692412288454304
sg208
F0.9780319903849916
sg209
F0.6500372666846841
sg210
F0.6
sg211
F0.515654979429355
sg212
F0.12731833681721064
sg213
F0.4
sg214
F1.0
sg215
g25
ssa(dp218
I1
(dp219
g3
F0.0029607287585631226
sg198
F0.42136883208818576
sg5
F2.4163649682303143
sg199
F50.0
sg200
F1030.1719203996827
sg8
F0.7084366520871471
sg201
F1.0
sg202
F0.12978579627535455
sg203
F1.0
sg204
F100.0
sg205
g14
sg206
F0.19
sg207
F0.38772607777319323
sg208
F0.9869169034834626
sg209
F0.5727542912832208
sg210
F0.6
sg211
F0.46804929587225647
sg212
F0.22827565989719903
sg213
F0.4
sg214
F1.0
sg215
g25
ssa(dp220
I1
(dp221
g3
F0.006068530556254987
sg198
F0.42961762609579224
sg5
F2.197939562942713
sg199
F50.0
sg200
F991.6795639157849
sg8
F0.3470257904919076
sg201
F1.0
sg202
F0.21976330509344755
sg203
F1.0
sg204
F100.0
sg205
g14
sg206
F0.19
sg207
F0.3907229472536212
sg208
F0.9781551042140562
sg209
F0.4880004900641337
sg210
F0.6
sg211
F0.4984838718067243
sg212
F0.12757857142885595
sg213
F0.4
sg214
F1.0
sg215
g25
ssa(dp222
I1
(dp223
g3
F0.007183545939458828
sg198
F0.3937518545672582
sg5
F2.2256206097746793
sg199
F50.0
sg200
F766.1259846190867
sg8
F0.6480394435696705
sg201
F1.0
sg202
F0.1479538510230714
sg203
F1.0
sg204
F100.0
sg205
g14
sg206
F0.19
sg207
F0.3481490322881349
sg208
F0.9043327936650644
sg209
F0.8598969768502336
sg210
F0.6
sg211
F0.2923152263920297
sg212
F0.3678888696967912
sg213
F0.4
sg214
F1.0
sg215
g25
ssa(dp224
I1
(dp225
g3
F0.002913423278458857
sg198
F0.3067376527416378
sg5
F2.1598793988980063
sg199
F50.0
sg200
F721.4025799771568
sg8
F0.6206697377185384
sg201
F1.0
sg202
F0.24421326166653926
sg203
F1.0
sg204
F100.0
sg205
g14
sg206
F0.19
sg207
F0.33208541623500093
sg208
F0.8300248368020804
sg209
F0.8919363566100625
sg210
F0.6
sg211
F0.47690389812790623
sg212
F0.14426091252818632
sg213
F0.4
sg214
F1.0
sg215
g25
ssa(dp226
I1
(dp227
g3
F0.0051736188676787115
sg198
F0.4059209866427967
sg5
F1.9929770895120615
sg199
F50.0
sg200
F883.9694658214371
sg8
F0.6428631960617242
sg201
F1.0
sg202
F0.045078108929249176
sg203
F1.0
sg204
F100.0
sg205
g14
sg206
F0.19
sg207
F0.3438527305063608
sg208
F0.8962689568590878
sg209
F0.40561802654366974
sg210
F0.6
sg211
F0.3686634480057591
sg212
F0.2811713028704815
sg213
F0.4
sg214
F1.0
sg215
g25
ssa(dp228
I1
(dp229
g3
F0.004787246811255589
sg198
F0.4459845217379586
sg5
F2.1433121962659545
sg199
F50.0
sg200
F1068.5360473899332
sg8
F0.44395015117548586
sg201
F1.0
sg202
F0.2005077613252526
sg203
F1.0
sg204
F100.0
sg205
g14
sg206
F0.19
sg207
F0.3691580278267228
sg208
F0.9509737189651923
sg209
F0.3723536465280024
sg210
F0.6
sg211
F0.335840352268269
sg212
F0.23224543207280188
sg213
F0.4
sg214
F1.0
sg215
g25
ssa(dp230
I1
(dp231
g3
F0.009728880810457844
sg198
F0.4478589083386309
sg5
F1.8717122245737714
sg199
F50.0
sg200
F1067.2873132987083
sg8
F0.7209082579069686
sg201
F1.0
sg202
F0.002574449636192
sg203
F1.0
sg204
F100.0
sg205
g14
sg206
F0.19
sg207
F0.33902230503745745
sg208
F0.9531694076946472
sg209
F0.499544562246674
sg210
F0.6
sg211
F0.44361886722146354
sg212
F0.2850799309210367
sg213
F0.4
sg214
F1.0
sg215
g25
ssa(dp232
I1
(dp233
g3
F0.0016631118378413255
sg198
F0.3657259153666735
sg5
F2.4967549151213837
sg199
F50.0
sg200
F758.534965543824
sg8
F0.6601388103960505
sg201
F1.0
sg202
F0.04819375572335081
sg203
F1.0
sg204
F100.0
sg205
g14
sg206
F0.19
sg207
F0.35644086695973326
sg208
F0.9740091843880522
sg209
F0.46295917709275614
sg210
F0.6
sg211
F0.5402944311549617
sg212
F0.12144989236849592
sg213
F0.4
sg214
F1.0
sg215
g25
ssa(dp234
I1
(dp235
g3
F0.009461334619012773
sS'k12'
p236
F0.36851003899043183
sg5
F2.0362565416710408
sS'zrS'
p237
F50.0
sS'zrR'
p238
F654.0650896224133
sg8
F0.5142376762445207
sS'res2'
p239
F1.0
sS's0R'
p240
F0.1273066157455682
sS'res1'
p241
F1.0
sS'storageR'
p242
F100.0
sS'gz'
p243
g14
sS's0S'
p244
F0.19
sS'k1'
p245
F0.3726692061379733
sS'eta'
p246
F0.9711099213436201
sS'stR'
p247
F0.4467580544182149
sS'stS'
p248
F0.6
sS'alpha'
p249
F0.4592970657429409
sS'nR'
p250
F0.17704962636588015
sS'nS'
p251
F0.4
sS'storageS'
p252
F1.0
sS'vz'
p253
g25
ssa(dp254
I1
(dp255
g3
F0.002519238965858494
sg236
F0.4029807036641016
sg5
F2.3051849063052554
sg237
F50.0
sg238
F868.1820164363961
sg8
F0.6371446849356012
sg239
F1.0
sg240
F0.19214457294249057
sg241
F1.0
sg242
F100.0
sg243
g14
sg244
F0.19
sg245
F0.3665694838375702
sg246
F0.9946696683634466
sg247
F0.46563011617614336
sg248
F0.6
sg249
F0.41685847837855133
sg250
F0.17336065812125287
sg251
F0.4
sg252
F1.0
sg253
g25
ssa(dp256
I1
(dp257
g3
F0.005478396776201945
sg236
F0.46885436929959645
sg5
F2.3068316631132806
sg237
F50.0
sg238
F578.8531252895367
sg8
F0.14529881883443352
sg239
F1.0
sg240
F0.20664057314747308
sg241
F1.0
sg242
F100.0
sg243
g14
sg244
F0.19
sg245
F0.36922404347014026
sg246
F0.8783897911913692
sg247
F0.48039384968947385
sg248
F0.6
sg249
F0.4384672307652977
sg250
F0.2429726527249878
sg251
F0.4
sg252
F1.0
sg253
g25
ssa(dp258
I1
(dp259
g3
F0.009005722129728595
sg236
F0.4631373144152118
sg5
F1.9194109705900788
sg237
F50.0
sg238
F790.8246969659724
sg8
F0.5978682601454745
sg239
F1.0
sg240
F0.06214510810549881
sg241
F1.0
sg242
F100.0
sg243
g14
sg244
F0.19
sg245
F0.3851887363588167
sg246
F0.9998393469586013
sg247
F0.5208458987987007
sg248
F0.6
sg249
F0.5811674223502274
sg250
F0.09206333592398712
sg251
F0.4
sg252
F1.0
sg253
g25
ssa(dp260
I1
(dp261
g3
F0.004235024822193232
sg236
F0.3439608586117738
sg5
F2.1238667221468335
sg237
F50.0
sg238
F743.6730496771651
sg8
F0.6581645977398629
sg239
F1.0
sg240
F0.16808621110672042
sg241
F1.0
sg242
F100.0
sg243
g14
sg244
F0.19
sg245
F0.36297034438148706
sg246
F0.978554405246816
sg247
F0.574265845147829
sg248
F0.6
sg249
F0.353541826002219
sg250
F0.23512764364009422
sg251
F0.4
sg252
F1.0
sg253
g25
ssa(dp262
I1
(dp263
g3
F0.0038667250286442815
sg236
F0.4720137138023089
sg5
F2.24330890808207
sg237
F50.0
sg238
F1185.0145133508063
sg8
F0.607681297575769
sg239
F1.0
sg240
F0.034792913224685584
sg241
F1.0
sg242
F100.0
sg243
g14
sg244
F0.19
sg245
F0.3706445671634057
sg246
F0.9713873591922214
sg247
F0.36292037885993356
sg248
F0.6
sg249
F0.4791345447852124
sg250
F0.11889331080206536
sg251
F0.4
sg252
F1.0
sg253
g25
ssa(dp264
I1
(dp265
g3
F0.0030099351679424603
sg236
F0.47702313459315443
sg5
F2.3026258805414903
sg237
F50.0
sg238
F783.1427472831042
sg8
F0.30830617504740543
sg239
F1.0
sg240
F0.2784492080556203
sg241
F1.0
sg242
F100.0
sg243
g14
sg244
F0.19
sg245
F0.3758370265198204
sg246
F0.8244882431196683
sg247
F0.4085619838043488
sg248
F0.6
sg249
F0.5804095033767022
sg250
F0.3455830899640275
sg251
F0.4
sg252
F1.0
sg253
g25
ssa(dp266
I1
(dp267
g3
F0.002565843864513095
sg236
F0.35485491672113584
sg5
F2.4012708473009763
sg237
F50.0
sg238
F614.585394461251
sg8
F0.2147520916154708
sg239
F1.0
sg240
F0.3087480342397304
sg241
F1.0
sg242
F100.0
sg243
g14
sg244
F0.19
sg245
F0.367735123521872
sg246
F0.9974545136787107
sg247
F0.4666672207791992
sg248
F0.6
sg249
F0.408409536461353
sg250
F0.3368283739932737
sg251
F0.4
sg252
F1.0
sg253
g25
ssa(dp268
I1
(dp269
g3
F0.0037764077577187036
sg236
F0.45013757377200725
sg5
F2.310842895503641
sg237
F50.0
sg238
F959.4522700915056
sg8
F0.5186686279383946
sg239
F1.0
sg240
F0.30465731802447243
sg241
F1.0
sg242
F100.0
sg243
g14
sg244
F0.19
sg245
F0.30552450760550565
sg246
F0.8047374791917301
sg247
F0.6511391571280092
sg248
F0.6
sg249
F0.4602643616321723
sg250
F0.17380031356911982
sg251
F0.4
sg252
F1.0
sg253
g25
ssa(dp270
I1
(dp271
g3
F0.008871560357153774
sg236
F0.39192091031057474
sg5
F1.9142826210807555
sg237
F50.0
sg238
F1006.9176563087578
sg8
F0.4138107986776437
sg239
F1.0
sg240
F0.03937125529645722
sg241
F1.0
sg242
F100.0
sg243
g14
sg244
F0.19
sg245
F0.3731310452329031
sg246
F0.9753893669136307
sg247
F0.2631749047624474
sg248
F0.6
sg249
F0.5741099296755803
sg250
F0.11286837602441306
sg251
F0.4
sg252
F1.0
sg253
g25
ssa(dp272
I1
(dp273
g3
F0.005563342228789991
sS'k12'
p274
F0.3536217046545751
sg5
F2.1074374292306683
sS'zrS'
p275
F50.0
sS'zrR'
p276
F1105.3455099453076
sg8
F0.6792736300936266
sS'res2'
p277
F1.0
sS's0R'
p278
F0.2957908110446574
sS'res1'
p279
F1.0
sS'storageR'
p280
F100.0
sS'gz'
p281
g14
sS's0S'
p282
F0.19
sS'k1'
p283
F0.3216488833492742
sS'eta'
p284
F0.9897774409014581
sS'stR'
p285
F0.7456833938932543
sS'stS'
p286
F0.6
sS'alpha'
p287
F0.2780981358725757
sS'nR'
p288
F0.1304972420757579
sS'nS'
p289
F0.4
sS'storageS'
p290
F1.0
sS'vz'
p291
g25
ssa(dp292
I1
(dp293
g3
F0.0025852055961807546
sg274
F0.4304700145808016
sg5
F2.255051988667006
sg275
F50.0
sg276
F1116.3437842058524
sg8
F0.6692391218825092
sg277
F1.0
sg278
F0.20423961128345303
sg279
F1.0
sg280
F100.0
sg281
g14
sg282
F0.19
sg283
F0.3191632973577808
sg284
F0.9493923186201036
sg285
F0.3318958472417741
sg286
F0.6
sg287
F0.5325480831040359
sg288
F0.29828769134973715
sg289
F0.4
sg290
F1.0
sg291
g25
ssa(dp294
I1
(dp295
g3
F0.0015602232760590458
sg274
F0.4105057609534655
sg5
F2.4397730619443467
sg275
F50.0
sg276
F1015.048126945695
sg8
F0.5622990298795573
sg277
F1.0
sg278
F0.1858860358159547
sg279
F1.0
sg280
F100.0
sg281
g14
sg282
F0.19
sg283
F0.3240752923051124
sg284
F0.956786564290266
sg285
F0.35073836526411917
sg286
F0.6
sg287
F0.5040714659772079
sg288
F0.2300346099936146
sg289
F0.4
sg290
F1.0
sg291
g25
ssa(dp296
I1
(dp297
g3
F0.0020280708290168147
sg274
F0.36853067298770076
sg5
F2.1917876708542803
sg275
F50.0
sg276
F1089.8300215190243
sg8
F0.5981584128019442
sg277
F1.0
sg278
F0.21776810355065673
sg279
F1.0
sg280
F100.0
sg281
g14
sg282
F0.19
sg283
F0.3792577194457409
sg284
F0.9057163152898844
sg285
F0.47245279430209963
sg286
F0.6
sg287
F0.4783391497457704
sg288
F0.18494274685282797
sg289
F0.4
sg290
F1.0
sg291
g25
ssa(dp298
I1
(dp299
g3
F0.007506819813734147
sg274
F0.393476451590262
sg5
F1.9286902481750048
sg275
F50.0
sg276
F780.8102762409388
sg8
F0.5584288669780295
sg277
F1.0
sg278
F0.015576088917753639
sg279
F1.0
sg280
F100.0
sg281
g14
sg282
F0.19
sg283
F0.3570049819977297
sg284
F0.9597082027840671
sg285
F0.20434769704152167
sg286
F0.6
sg287
F0.28693011376559197
sg288
F0.3911571042911186
sg289
F0.4
sg290
F1.0
sg291
g25
ssa(dp300
I1
(dp301
g3
F0.006275690477163306
sg274
F0.41161339867191665
sg5
F2.0988365781456317
sg275
F50.0
sg276
F785.9984033290073
sg8
F0.6673402134890938
sg277
F1.0
sg278
F0.2837770216724756
sg279
F1.0
sg280
F100.0
sg281
g14
sg282
F0.19
sg283
F0.34351810034102004
sg284
F0.9260017469765282
sg285
F0.7605866668772213
sg286
F0.6
sg287
F0.432320581905737
sg288
F0.2362972878192715
sg289
F0.4
sg290
F1.0
sg291
g25
ssa(dp302
I1
(dp303
g3
F0.0017428556298795062
sg274
F0.3767524898176863
sg5
F2.3862489567027274
sg275
F50.0
sg276
F974.9124909178632
sg8
F0.6654413546088643
sg277
F1.0
sg278
F0.21993051759757498
sg279
F1.0
sg280
F100.0
sg281
g14
sg282
F0.19
sg283
F0.3437320837450288
sg284
F0.9015104250849268
sg285
F0.48949536356531
sg286
F0.6
sg287
F0.3931289196343492
sg288
F0.15849883957259064
sg289
F0.4
sg290
F1.0
sg291
g25
ssa(dp304
I1
(dp305
g3
F0.005484919876143373
sg274
F0.3722103606785708
sg5
F1.9911684790285011
sg275
F50.0
sg276
F1062.8129751609638
sg8
F0.7388847500655876
sg277
F1.0
sg278
F0.24214474897223012
sg279
F1.0
sg280
F100.0
sg281
g14
sg282
F0.19
sg283
F0.3461510851262979
sg284
F0.9379206047025431
sg285
F0.6492950482652571
sg286
F0.6
sg287
F0.40050013049944755
sg288
F0.2633367488519617
sg289
F0.4
sg290
F1.0
sg291
g25
ssa(dp306
I1
(dp307
g3
F0.009714840984538712
sg274
F0.47017712805609163
sg5
F1.933281589595558
sg275
F50.0
sg276
F742.6865007306432
sg8
F0.5788244384652378
sg277
F1.0
sg278
F0.3724970257406177
sg279
F1.0
sg280
F100.0
sg281
g14
sg282
F0.19
sg283
F0.34688160060323064
sg284
F0.9197374983712584
sg285
F0.7660455396216823
sg286
F0.6
sg287
F0.4111995389003057
sg288
F0.1556457679807606
sg289
F0.4
sg290
F1.0
sg291
g25
ssa(dp308
I1
(dp309
g3
F0.003233724338235776
sg274
F0.34559426746557675
sg5
F2.395420582563582
sg275
F50.0
sg276
F1044.4874186224579
sg8
F0.22892129175375306
sg277
F1.0
sg278
F0.15153384478537932
sg279
F1.0
sg280
F100.0
sg281
g14
sg282
F0.19
sg283
F0.3856775535961004
sg284
F0.9768982681698382
sg285
F0.2743813523785468
sg286
F0.6
sg287
F0.43718805782835196
sg288
F0.27037891204875897
sg289
F0.4
sg290
F1.0
sg291
g25
ssa(dp310
I1
(dp311
g3
F0.006125557542704916
sS'k12'
p312
F0.46935263837379876
sg5
F2.025941135075136
sS'zrS'
p313
F50.0
sS'zrR'
p314
F906.082774606338
sg8
F0.6359104885376305
sS'res2'
p315
F1.0
sS's0R'
p316
F0.38700851256863406
sS'res1'
p317
F1.0
sS'storageR'
p318
F100.0
sS'gz'
p319
g14
sS's0S'
p320
F0.19
sS'k1'
p321
F0.35544629078965767
sS'eta'
p322
F0.9698458330396644
sS'stR'
p323
F0.6020962589259733
sS'stS'
p324
F0.6
sS'alpha'
p325
F0.3142252209345406
sS'nR'
p326
F0.368053095223306
sS'nS'
p327
F0.4
sS'storageS'
p328
F1.0
sS'vz'
p329
g25
ssa(dp330
I1
(dp331
g3
F0.008978847909119153
sg312
F0.40112350410515396
sg5
F2.0334253969154488
sg313
F50.0
sg314
F1105.449237131465
sg8
F0.5226039747147458
sg315
F1.0
sg316
F0.012770707257985148
sg317
F1.0
sg318
F100.0
sg319
g14
sg320
F0.19
sg321
F0.3483123490371523
sg322
F0.9232846712204406
sg323
F0.80358590867418
sg324
F0.6
sg325
F0.5355859347100982
sg326
F0.040494119073978964
sg327
F0.4
sg328
F1.0
sg329
g25
ssa(dp332
I1
(dp333
g3
F0.006198498622648705
sg312
F0.49477230805104927
sg5
F2.1692948404800374
sg313
F50.0
sg314
F619.607314416046
sg8
F0.4497001893719573
sg315
F1.0
sg316
F0.1334913750849386
sg317
F1.0
sg318
F100.0
sg319
g14
sg320
F0.19
sg321
F0.34909848434444835
sg322
F0.9139997888998708
sg323
F0.31916456169859553
sg324
F0.6
sg325
F0.5216294120382092
sg326
F0.2880540880793819
sg327
F0.4
sg328
F1.0
sg329
g25
ssa(dp334
I1
(dp335
g3
F0.009883680030438583
sg312
F0.379213022837623
sg5
F1.9180738013546637
sg313
F50.0
sg314
F1022.2278444828451
sg8
F0.6953582167292203
sg315
F1.0
sg316
F0.29715243707526195
sg317
F1.0
sg318
F100.0
sg319
g14
sg320
F0.19
sg321
F0.30991560963039405
sg322
F0.9433240314405973
sg323
F0.7858261310065434
sg324
F0.6
sg325
F0.3579594402998976
sg326
F0.38073160479327006
sg327
F0.4
sg328
F1.0
sg329
g25
ssa(dp336
I1
(dp337
g3
F0.00805303174099534
sg312
F0.430807292331802
sg5
F1.85461050577392
sg313
F50.0
sg314
F714.41452620667
sg8
F0.6666065262427724
sg315
F1.0
sg316
F0.2250177938923341
sg317
F1.0
sg318
F100.0
sg319
g14
sg320
F0.19
sg321
F0.3818855865185091
sg322
F0.9851276184549367
sg323
F0.6540100025292365
sg324
F0.6
sg325
F0.3617290595302756
sg326
F0.16786590240778893
sg327
F0.4
sg328
F1.0
sg329
g25
ssa(dp338
I1
(dp339
g3
F0.0051393409509115275
sg312
F0.40414190132109595
sg5
F2.080957234784712
sg313
F50.0
sg314
F608.6263482475567
sg8
F0.6072938861961367
sg315
F1.0
sg316
F0.17106642657539983
sg317
F1.0
sg318
F100.0
sg319
g14
sg320
F0.19
sg321
F0.3516406642344372
sg322
F0.969968353025273
sg323
F0.41810669999961136
sg324
F0.6
sg325
F0.5733147189708474
sg326
F0.24059001501933353
sg327
F0.4
sg328
F1.0
sg329
g25
ssa(dp340
I1
(dp341
g3
F0.0076154765942542755
sg312
F0.3564580089532152
sg5
F1.8281716335179972
sg313
F50.0
sg314
F1028.9440751194138
sg8
F0.6830929120668828
sg315
F1.0
sg316
F0.2274700247568783
sg317
F1.0
sg318
F100.0
sg319
g14
sg320
F0.19
sg321
F0.36397550959082264
sg322
F0.8753400513339261
sg323
F0.7486111448760945
sg324
F0.6
sg325
F0.36985740738024264
sg326
F0.2419370190138591
sg327
F0.4
sg328
F1.0
sg329
g25
ssa(dp342
I1
(dp343
g3
F0.005690059160378465
sg312
F0.3788164244926373
sg5
F2.0562169005413278
sg313
F50.0
sg314
F1132.1939531856992
sg8
F0.5373577982402258
sg315
F1.0
sg316
F0.17280756733100164
sg317
F1.0
sg318
F100.0
sg319
g14
sg320
F0.19
sg321
F0.36691523065275666
sg322
F0.7595594383149367
sg323
F0.507746077590861
sg324
F0.6
sg325
F0.4545621110155721
sg326
F0.16755844028752118
sg327
F0.4
sg328
F1.0
sg329
g25
ssa(dp344
I1
(dp345
g3
F0.009968687605063099
sg312
F0.45124367896629436
sg5
F1.894536630543119
sg313
F50.0
sg314
F544.3844704179685
sg8
F0.6556469957142312
sg315
F1.0
sg316
F0.23293002417252812
sg317
F1.0
sg318
F100.0
sg319
g14
sg320
F0.19
sg321
F0.32504145622850467
sg322
F0.8530077481861487
sg323
F0.6849109049220651
sg324
F0.6
sg325
F0.4377476136179637
sg326
F0.30442869395461103
sg327
F0.4
sg328
F1.0
sg329
g25
ssa(dp346
I1
(dp347
g3
F0.0065415205018002805
sg312
F0.49917440661551904
sg5
F2.0486245449173377
sg313
F50.0
sg314
F1114.6359490567315
sg8
F0.5801393863955695
sg315
F1.0
sg316
F0.12367630986491013
sg317
F1.0
sg318
F100.0
sg319
g14
sg320
F0.19
sg321
F0.33093509630374
sg322
F0.9841893833060827
sg323
F0.3467279732263173
sg324
F0.6
sg325
F0.48693038191940535
sg326
F0.13936608502922332
sg327
F0.4
sg328
F1.0
sg329
g25
ssa(dp348
I1
(dp349
g3
F0.008983771035349314
sS'k12'
p350
F0.31995443373393745
sg5
F1.9213094114347535
sS'zrS'
p351
F50.0
sS'zrR'
p352
F974.6258285149399
sg8
F0.7224097927713528
sS'res2'
p353
F1.0
sS's0R'
p354
F0.010042042388514272
sS'res1'
p355
F1.0
sS'storageR'
p356
F100.0
sS'gz'
p357
g14
sS's0S'
p358
F0.19
sS'k1'
p359
F0.3282019653951641
sS'eta'
p360
F0.9982696612370288
sS'stR'
p361
F0.35162492757303454
sS'stS'
p362
F0.6
sS'alpha'
p363
F0.40895027477700113
sS'nR'
p364
F0.38806526011154635
sS'nS'
p365
F0.4
sS'storageS'
p366
F1.0
sS'vz'
p367
g25
ssa(dp368
I1
(dp369
g3
F0.0033670743345029755
sg350
F0.3917312933371862
sg5
F2.2735132634687734
sg351
F50.0
sg352
F784.6254044271689
sg8
F0.680955866495464
sg353
F1.0
sg354
F0.3064543616108825
sg355
F1.0
sg356
F100.0
sg357
g14
sg358
F0.19
sg359
F0.349994241599716
sg360
F0.974612007988396
sg361
F0.807584022239577
sg362
F0.6
sg363
F0.41522048901568803
sg364
F0.17549545489630047
sg365
F0.4
sg366
F1.0
sg367
g25
ssa(dp370
I1
(dp371
g3
F0.007565541833628927
sg350
F0.4391180328876979
sg5
F1.9630226155740584
sg351
F50.0
sg352
F705.8628804152543
sg8
F0.2934391629244016
sg353
F1.0
sg354
F0.3013925777951664
sg355
F1.0
sg356
F100.0
sg357
g14
sg358
F0.19
sg359
F0.39014242701591434
sg360
F0.8337956236340955
sg361
F0.7798523215000099
sg362
F0.6
sg363
F0.5824514350565045
sg364
F0.10286603819741395
sg365
F0.4
sg366
F1.0
sg367
g25
ssa(dp372
I1
(dp373
g3
F0.0075427989082433415
sg350
F0.320902663064546
sg5
F1.8963239481201988
sg351
F50.0
sg352
F676.7561258275425
sg8
F0.6797218405900285
sg353
F1.0
sg354
F0.03447406273087639
sg355
F1.0
sg356
F100.0
sg357
g14
sg358
F0.19
sg359
F0.3227027142025691
sg360
F0.9914090588377136
sg361
F0.8574163182302653
sg362
F0.6
sg363
F0.556811030566363
sg364
F0.08178426194044969
sg365
F0.4
sg366
F1.0
sg367
g25
ssa(dp374
I1
(dp375
g3
F0.008930406062460866
sg350
F0.3317072708262612
sg5
F1.865389752870729
sg351
F50.0
sg352
F1050.9504760998602
sg8
F0.4440959581111369
sg353
F1.0
sg354
F0.004384714072581497
sg355
F1.0
sg356
F100.0
sg357
g14
sg358
F0.19
sg359
F0.3588519166028597
sg360
F0.9217228026587689
sg361
F0.19682668928205027
sg362
F0.6
sg363
F0.42321014493678455
sg364
F0.17854362569541493
sg365
F0.4
sg366
F1.0
sg367
g25
ssa(dp376
I1
(dp377
g3
F0.006582769867464875
sg350
F0.4363037024159365
sg5
F2.1202625011107066
sg351
F50.0
sg352
F634.3401889328927
sg8
F0.5404827418851144
sg353
F1.0
sg354
F0.3631224681583952
sg355
F1.0
sg356
F100.0
sg357
g14
sg358
F0.19
sg359
F0.39871759490758546
sg360
F0.9727817105149698
sg361
F0.6003993351975339
sg362
F0.6
sg363
F0.3628507540808588
sg364
F0.28752893607739705
sg365
F0.4
sg366
F1.0
sg367
g25
ssa(dp378
I1
(dp379
g3
F0.0012099628122376823
sg350
F0.473652973177516
sg5
F2.4350608874780058
sg351
F50.0
sg352
F933.6335421945465
sg8
F0.7222251847129971
sg353
F1.0
sg354
F0.11129679008836187
sg355
F1.0
sg356
F100.0
sg357
g14
sg358
F0.19
sg359
F0.3486422421108034
sg360
F0.9951182609141438
sg361
F0.6863445744057105
sg362
F0.6
sg363
F0.2567499068570553
sg364
F0.22878618321935326
sg365
F0.4
sg366
F1.0
sg367
g25
ssa(dp380
I1
(dp381
g3
F0.00949530261512742
sg350
F0.4209796695167427
sg5
F1.926985934220929
sg351
F50.0
sg352
F976.2548727960877
sg8
F0.5260537027885236
sg353
F1.0
sg354
F0.09271656609276886
sg355
F1.0
sg356
F100.0
sg357
g14
sg358
F0.19
sg359
F0.3588051460322381
sg360
F0.8285919768711851
sg361
F0.6455169392630921
sg362
F0.6
sg363
F0.3250242461846247
sg364
F0.11197314131171784
sg365
F0.4
sg366
F1.0
sg367
g25
ssa(dp382
I1
(dp383
g3
F0.006086264786328659
sg350
F0.4215446031575961
sg5
F2.160422626375694
sg351
F50.0
sg352
F1038.2388197015441
sg8
F0.6137401153252584
sg353
F1.0
sg354
F0.00012303668716322493
sg355
F1.0
sg356
F100.0
sg357
g14
sg358
F0.19
sg359
F0.3202998986064737
sg360
F0.9200774170979098
sg361
F0.36641388118034257
sg362
F0.6
sg363
F0.3121774404688438
sg364
F0.2108685714797274
sg365
F0.4
sg366
F1.0
sg367
g25
ssa(dp384
I1
(dp385
g3
F0.00305931324900771
sg350
F0.36120927156555516
sg5
F2.125532623621744
sg351
F50.0
sg352
F556.0111319660721
sg8
F0.6018550627088814
sg353
F1.0
sg354
F0.12126370453168356
sg355
F1.0
sg356
F100.0
sg357
g14
sg358
F0.19
sg359
F0.3303368030194421
sg360
F0.9387588469406238
sg361
F0.8182848225293915
sg362
F0.6
sg363
F0.5133318538296933
sg364
F0.11396499837547328
sg365
F0.4
sg366
F1.0
sg367
g25
ssa(dp386
I1
(dp387
g3
F0.0027303080733694775
sS'k12'
p388
F0.33382429015779985
sg5
F2.463766227762807
sS'zrS'
p389
F50.0
sS'zrR'
p390
F789.7427556258306
sg8
F0.4802445027898008
sS'res2'
p391
F1.0
sS's0R'
p392
F0.25813852610019905
sS'res1'
p393
F1.0
sS'storageR'
p394
F100.0
sS'gz'
p395
g14
sS's0S'
p396
F0.19
sS'k1'
p397
F0.3242644753089838
sS'eta'
p398
F0.902537176917074
sS'stR'
p399
F0.71564043508069
sS'stS'
p400
F0.6
sS'alpha'
p401
F0.5528736918846574
sS'nR'
p402
F0.09556825789382495
sS'nS'
p403
F0.4
sS'storageS'
p404
F1.0
sS'vz'
p405
g25
ssa(dp406
I1
(dp407
g3
F0.0038527129344376083
sg388
F0.34884082505039227
sg5
F2.150441058166219
sg389
F50.0
sg390
F1092.7720136369644
sg8
F0.5622410007111047
sg391
F1.0
sg392
F0.37673510222776585
sg393
F1.0
sg394
F100.0
sg395
g14
sg396
F0.19
sg397
F0.32845720560166136
sg398
F0.812140317267751
sg399
F0.71535192615611
sg400
F0.6
sg401
F0.33910694742113223
sg402
F0.17377057192868442
sg403
F0.4
sg404
F1.0
sg405
g25
ssa(dp408
I1
(dp409
g3
F0.004059440466393099
sg388
F0.42419724051395136
sg5
F2.3831551850954797
sg389
F50.0
sg390
F788.2931361377082
sg8
F0.5758357319060214
sg391
F1.0
sg392
F0.13550545348935011
sg393
F1.0
sg394
F100.0
sg395
g14
sg396
F0.19
sg397
F0.36058239971220535
sg398
F0.9596977553013462
sg399
F0.8844007449182839
sg400
F0.6
sg401
F0.44680516518925484
sg402
F0.09383764002411542
sg403
F0.4
sg404
F1.0
sg405
g25
ssa(dp410
I1
(dp411
g3
F0.008630541019521532
sg388
F0.39411494012758996
sg5
F1.9780080504151198
sg389
F50.0
sg390
F500.05534615389814
sg8
F0.6173816007953796
sg391
F1.0
sg392
F0.15846459469215218
sg393
F1.0
sg394
F100.0
sg395
g14
sg396
F0.19
sg397
F0.3992290321136488
sg398
F0.8367059216163358
sg399
F0.804025743209251
sg400
F0.6
sg401
F0.39411769678460834
sg402
F0.3080498538336853
sg403
F0.4
sg404
F1.0
sg405
g25
ssa(dp412
I1
(dp413
g3
F0.004314883864790628
sg388
F0.4749299436242487
sg5
F2.0653538353169614
sg389
F50.0
sg390
F1134.856696925996
sg8
F0.6235834323743543
sg391
F1.0
sg392
F0.02931092256891863
sg393
F1.0
sg394
F100.0
sg395
g14
sg396
F0.19
sg397
F0.3621258185226579
sg398
F0.9834153628419772
sg399
F0.15799941870136297
sg400
F0.6
sg401
F0.6975354396907698
sg402
F0.1888399700112394
sg403
F0.4
sg404
F1.0
sg405
g25
ssa(dp414
I1
(dp415
g3
F0.007999053784013542
sg388
F0.3438583993510171
sg5
F2.0111908713359345
sg389
F50.0
sg390
F774.9676256400805
sg8
F0.6837721347538889
sg391
F1.0
sg392
F0.12980409772723941
sg393
F1.0
sg394
F100.0
sg395
g14
sg396
F0.19
sg397
F0.3146912562901142
sg398
F0.9404306298866085
sg399
F0.5382750700661597
sg400
F0.6
sg401
F0.37377801373634745
sg402
F0.3111206393817817
sg403
F0.4
sg404
F1.0
sg405
g25
ssa(dp416
I1
(dp417
g3
F0.004758008710317306
sg388
F0.4385096706748377
sg5
F2.047708822656096
sg389
F50.0
sg390
F974.7513070466123
sg8
F0.5870501040995003
sg391
F1.0
sg392
F0.3379705849042904
sg393
F1.0
sg394
F100.0
sg395
g14
sg396
F0.19
sg397
F0.3822339018532601
sg398
F0.9783440156857779
sg399
F0.6355363146115568
sg400
F0.6
sg401
F0.5474391560444617
sg402
F0.11711728232506169
sg403
F0.4
sg404
F1.0
sg405
g25
ssa(dp418
I1
(dp419
g3
F0.009151064092426938
sg388
F0.44538302295353405
sg5
F1.9880454137391315
sg389
F50.0
sg390
F966.816100036059
sg8
F0.5897700861188483
sg391
F1.0
sg392
F0.04951083896550528
sg393
F1.0
sg394
F100.0
sg395
g14
sg396
F0.19
sg397
F0.3773936674214265
sg398
F0.7705916777756435
sg399
F0.5452047127340083
sg400
F0.6
sg401
F0.3652654872607959
sg402
F0.31766218486929293
sg403
F0.4
sg404
F1.0
sg405
g25
ssa(dp420
I1
(dp421
g3
F0.007289232551042859
sg388
F0.384372377811808
sg5
F2.1363657912930254
sg389
F50.0
sg390
F593.319899384097
sg8
F0.48170893246469004
sg391
F1.0
sg392
F0.24815901036957289
sg393
F1.0
sg394
F100.0
sg395
g14
sg396
F0.19
sg397
F0.3824853367153191
sg398
F0.8815905615127857
sg399
F0.8674280371334904
sg400
F0.6
sg401
F0.5392228137397599
sg402
F0.09834614232292446
sg403
F0.4
sg404
F1.0
sg405
g25
ssa(dp422
I1
(dp423
g3
F0.0023280282307278385
sg388
F0.40765502063416564
sg5
F2.259377673806246
sg389
F50.0
sg390
F885.70510707057
sg8
F0.6689240787243796
sg391
F1.0
sg392
F0.19419099257541836
sg393
F1.0
sg394
F100.0
sg395
g14
sg396
F0.19
sg397
F0.3659129688465722
sg398
F0.8786735046274525
sg399
F0.4244298505313199
sg400
F0.6
sg401
F0.37954828134483615
sg402
F0.355818413976564
sg403
F0.4
sg404
F1.0
sg405
g25
ssa(dp424
I1
(dp425
g3
F0.005593305685720994
sS'k12'
p426
F0.4328523604862152
sg5
F2.1671638993065168
sS'zrS'
p427
F50.0
sS'zrR'
p428
F961.9791727167544
sg8
F0.5295467509467215
sS'res2'
p429
F1.0
sS's0R'
p430
F0.14645512035804087
sS'res1'
p431
F1.0
sS'storageR'
p432
F100.0
sS'gz'
p433
g14
sS's0S'
p434
F0.19
sS'k1'
p435
F0.3705346806450493
sS'eta'
p436
F0.875694877107709
sS'stR'
p437
F0.3333418383994642
sS'stS'
p438
F0.6
sS'alpha'
p439
F0.4626763293797406
sS'nR'
p440
F0.24379817684553737
sS'nS'
p441
F0.4
sS'storageS'
p442
F1.0
sS'vz'
p443
g25
ssa(dp444
I1
(dp445
g3
F0.007926760453934506
sg426
F0.4263905612104971
sg5
F2.063638466408527
sg427
F50.0
sg428
F1192.9168956673502
sg8
F0.7153835925129871
sg429
F1.0
sg430
F0.09024788208602984
sg431
F1.0
sg432
F100.0
sg433
g14
sg434
F0.19
sg435
F0.3710450871619607
sg436
F0.9750073800222243
sg437
F0.8584190982650572
sg438
F0.6
sg439
F0.3240149401832269
sg440
F0.25761101331268366
sg441
F0.4
sg442
F1.0
sg443
g25
ssa(dp446
I1
(dp447
g3
F0.008371387414374222
sg426
F0.39243445252594067
sg5
F2.02467477719876
sg427
F50.0
sg428
F756.0221517442122
sg8
F0.6142612462052114
sg429
F1.0
sg430
F0.35414824451110777
sg431
F1.0
sg432
F100.0
sg433
g14
sg434
F0.19
sg435
F0.37828375826603733
sg436
F0.8976495109663893
sg437
F0.6854318862358221
sg438
F0.6
sg439
F0.40303749787578763
sg440
F0.3765555201943127
sg441
F0.4
sg442
F1.0
sg443
g25
ssa(dp448
I1
(dp449
g3
F0.004414182365214053
sg426
F0.3449742409504625
sg5
F2.3376965695926075
sg427
F50.0
sg428
F623.7569411979289
sg8
F0.5948964156133582
sg429
F1.0
sg430
F0.17198686576258534
sg431
F1.0
sg432
F100.0
sg433
g14
sg434
F0.19
sg435
F0.32311450222139326
sg436
F0.8650868436185959
sg437
F0.8982715844543696
sg438
F0.6
sg439
F0.3999210775627477
sg440
F0.19007789147407775
sg441
F0.4
sg442
F1.0
sg443
g25
ssa(dp450
I1
(dp451
g3
F0.005871510997557724
sg426
F0.3010638706627173
sg5
F1.9855348768306358
sg427
F50.0
sg428
F877.7670326632649
sg8
F0.6968775844970255
sg429
F1.0
sg430
F0.32944918628208597
sg431
F1.0
sg432
F100.0
sg433
g14
sg434
F0.19
sg435
F0.3643959486291979
sg436
F0.9537373047059465
sg437
F0.8181071631060125
sg438
F0.6
sg439
F0.3396997765703014
sg440
F0.38088695034370534
sg441
F0.4
sg442
F1.0
sg443
g25
ssa(dp452
I1
(dp453
g3
F0.0068071860225298216
sg426
F0.30931191227258314
sg5
F2.158102750060386
sg427
F50.0
sg428
F1187.516526663615
sg8
F0.2727565680164131
sg429
F1.0
sg430
F0.2969387587263217
sg431
F1.0
sg432
F100.0
sg433
g14
sg434
F0.19
sg435
F0.3272815021076013
sg436
F0.935633605330767
sg437
F0.591876887298069
sg438
F0.6
sg439
F0.559776959082003
sg440
F0.08606452167582163
sg441
F0.4
sg442
F1.0
sg443
g25
ssa(dp454
I1
(dp455
g3
F0.006750338509420082
sg426
F0.3334106782374427
sg5
F1.9725834855197704
sg427
F50.0
sg428
F877.5195786628682
sg8
F0.5924881245966777
sg429
F1.0
sg430
F0.2334423553486436
sg431
F1.0
sg432
F100.0
sg433
g14
sg434
F0.19
sg435
F0.315658747156516
sg436
F0.9648047640583239
sg437
F0.6913020954958935
sg438
F0.6
sg439
F0.3922273819615932
sg440
F0.09883718878034602
sg441
F0.4
sg442
F1.0
sg443
g25
ssa(dp456
I1
(dp457
g3
F0.007129732479583836
sg426
F0.37434067518603814
sg5
F1.8384107746027052
sg427
F50.0
sg428
F851.0399818320168
sg8
F0.2642217747145169
sg429
F1.0
sg430
F0.064969609057091
sg431
F1.0
sg432
F100.0
sg433
g14
sg434
F0.19
sg435
F0.3947393751596529
sg436
F0.9390569011370317
sg437
F0.45102928096175554
sg438
F0.6
sg439
F0.5551148462085608
sg440
F0.09013907773936457
sg441
F0.4
sg442
F1.0
sg443
g25
ssa(dp458
I1
(dp459
g3
F0.009038652201058227
sg426
F0.44022062831730047
sg5
F1.9760344978843494
sg427
F50.0
sg428
F735.7175057370512
sg8
F0.5059611904698886
sg429
F1.0
sg430
F0.17505818916399868
sg431
F1.0
sg432
F100.0
sg433
g14
sg434
F0.19
sg435
F0.38927681702122446
sg436
F0.8921328332869054
sg437
F0.37037548011659616
sg438
F0.6
sg439
F0.5857281281437771
sg440
F0.2705141795085758
sg441
F0.4
sg442
F1.0
sg443
g25
ssa(dp460
I1
(dp461
g3
F0.0026814197385341327
sg426
F0.30684417448781504
sg5
F2.201720837282816
sg427
F50.0
sg428
F1187.7595782085102
sg8
F0.6310909481515712
sg429
F1.0
sg430
F0.12992739844296516
sg431
F1.0
sg432
F100.0
sg433
g14
sg434
F0.19
sg435
F0.30332716784530356
sg436
F0.9585679498654769
sg437
F0.29839920324248115
sg438
F0.6
sg439
F0.4846810657538367
sg440
F0.2519235897267878
sg441
F0.4
sg442
F1.0
sg443
g25
ssa(dp462
I1
(dp463
g3
F0.002894176354150233
sS'k12'
p464
F0.3517837408624089
sg5
F2.4345688577273488
sS'zrS'
p465
F50.0
sS'zrR'
p466
F1082.1168584934844
sg8
F0.5450601321025218
sS'res2'
p467
F1.0
sS's0R'
p468
F0.09458406823536634
sS'res1'
p469
F1.0
sS'storageR'
p470
F100.0
sS'gz'
p471
g14
sS's0S'
p472
F0.19
sS'k1'
p473
F0.31164439706597424
sS'eta'
p474
F0.9832025283257366
sS'stR'
p475
F0.18831576228558067
sS'stS'
p476
F0.6
sS'alpha'
p477
F0.6415698431950091
sS'nR'
p478
F0.295217579252182
sS'nS'
p479
F0.4
sS'storageS'
p480
F1.0
sS'vz'
p481
g25
ssa(dp482
I1
(dp483
g3
F0.0035998938166058245
sg464
F0.4329925934910387
sg5
F2.259660257975464
sg465
F50.0
sg466
F1157.5772064322564
sg8
F0.5711040010474085
sg467
F1.0
sg468
F0.29945325623618413
sg469
F1.0
sg470
F100.0
sg471
g14
sg472
F0.19
sg473
F0.3956229838457621
sg474
F0.8476664709540965
sg475
F0.5093303263526335
sg476
F0.6
sg477
F0.3234234287162345
sg478
F0.32885064134565634
sg479
F0.4
sg480
F1.0
sg481
g25
ssa(dp484
I1
(dp485
g3
F0.00931426869142154
sg464
F0.3572504396856419
sg5
F1.8802098219130952
sg465
F50.0
sg466
F678.5659915261285
sg8
F0.600930438571062
sg467
F1.0
sg468
F0.030948142694523995
sg469
F1.0
sg470
F100.0
sg471
g14
sg472
F0.19
sg473
F0.38515544968005616
sg474
F0.9478261314985518
sg475
F0.5795445212551348
sg476
F0.6
sg477
F0.3753069058334443
sg478
F0.19071967729339842
sg479
F0.4
sg480
F1.0
sg481
g25
ssa(dp486
I1
(dp487
g3
F0.004298650576002155
sg464
F0.46826482969946936
sg5
F2.3202475625533596
sg465
F50.0
sg466
F831.9837946368444
sg8
F0.5895407948744278
sg467
F1.0
sg468
F0.3674813468506719
sg469
F1.0
sg470
F100.0
sg471
g14
sg472
F0.19
sg473
F0.36751092381890843
sg474
F0.9996083806210645
sg475
F0.7414565547366592
sg476
F0.6
sg477
F0.4735677410474857
sg478
F0.13030463363833159
sg479
F0.4
sg480
F1.0
sg481
g25
ssa(dp488
I1
(dp489
g3
F0.00630023245845396
sg464
F0.40300881677112904
sg5
F2.069956226223603
sg465
F50.0
sg466
F1179.3328683844225
sg8
F0.6432049481013025
sg467
F1.0
sg468
F0.019784314395373006
sg469
F1.0
sg470
F100.0
sg471
g14
sg472
F0.19
sg473
F0.3781854454763361
sg474
F0.8620991803729234
sg475
F0.3683283357975361
sg476
F0.6
sg477
F0.3295581708206544
sg478
F0.2726288820576312
sg479
F0.4
sg480
F1.0
sg481
g25
ssa(dp490
I1
(dp491
g3
F0.0038565614330477245
sg464
F0.4060913001697981
sg5
F2.132813385123191
sg465
F50.0
sg466
F829.5257957514425
sg8
F0.7255864894118925
sg467
F1.0
sg468
F0.2723582197806535
sg469
F1.0
sg470
F100.0
sg471
g14
sg472
F0.19
sg473
F0.3893416293995558
sg474
F0.9963808117113775
sg475
F0.7988081108191948
sg476
F0.6
sg477
F0.4465448123633194
sg478
F0.2542324434114551
sg479
F0.4
sg480
F1.0
sg481
g25
ssa(dp492
I1
(dp493
g3
F0.007673946789482151
sg464
F0.4877647708702836
sg5
F2.0815014360721467
sg465
F50.0
sg466
F745.2469777361621
sg8
F0.6456198444409019
sg467
F1.0
sg468
F0.014694947125642744
sg469
F1.0
sg470
F100.0
sg471
g14
sg472
F0.19
sg473
F0.3923841180934738
sg474
F0.9814554295303614
sg475
F0.36237509797943834
sg476
F0.6
sg477
F0.484844885166979
sg478
F0.23106959536845068
sg479
F0.4
sg480
F1.0
sg481
g25
ssa(dp494
I1
(dp495
g3
F0.0069192416697025465
sg464
F0.49758048729210225
sg5
F1.9503585811370578
sg465
F50.0
sg466
F766.2206234286284
sg8
F0.6801234669435134
sg467
F1.0
sg468
F0.1727432962963106
sg469
F1.0
sg470
F100.0
sg471
g14
sg472
F0.19
sg473
F0.3373286256560504
sg474
F0.936762482845107
sg475
F0.6831149217434832
sg476
F0.6
sg477
F0.28674819082503156
sg478
F0.3366316952495288
sg479
F0.4
sg480
F1.0
sg481
g25
ssa(dp496
I1
(dp497
g3
F0.008990510499170054
sg464
F0.46871603473632606
sg5
F1.8829669731613792
sg465
F50.0
sg466
F832.2472589059522
sg8
F0.5744908074663834
sg467
F1.0
sg468
F0.18499679886462947
sg469
F1.0
sg470
F100.0
sg471
g14
sg472
F0.19
sg473
F0.33968825629338484
sg474
F0.8142613002576912
sg475
F0.5150890852550281
sg476
F0.6
sg477
F0.4731610775731442
sg478
F0.21989534948817016
sg479
F0.4
sg480
F1.0
sg481
g25
ssa(dp498
I1
(dp499
g3
F0.005524461842965865
sg464
F0.31453224067198393
sg5
F2.124337534708963
sg465
F50.0
sg466
F1031.1268717320838
sg8
F0.6539635799762514
sg467
F1.0
sg468
F0.19280025133586182
sg469
F1.0
sg470
F100.0
sg471
g14
sg472
F0.19
sg473
F0.34263896670650174
sg474
F0.8638220772106413
sg475
F0.7003870594652513
sg476
F0.6
sg477
F0.42384426315865703
sg478
F0.25268826512144227
sg479
F0.4
sg480
F1.0
sg481
g25
ssa(dp500
I1
(dp501
g3
F0.009666433372809041
sS'k12'
p502
F0.37080030549648657
sg5
F2.030139466988795
sS'zrS'
p503
F50.0
sS'zrR'
p504
F1151.2248277867952
sg8
F0.5504338422660096
sS'res2'
p505
F1.0
sS's0R'
p506
F0.3491561181118789
sS'res1'
p507
F1.0
sS'storageR'
p508
F100.0
sS'gz'
p509
g14
sS's0S'
p510
F0.19
sS'k1'
p511
F0.3393360115140145
sS'eta'
p512
F0.9580956655499262
sS'stR'
p513
F0.8659731847482718
sS'stS'
p514
F0.6
sS'alpha'
p515
F0.4023084012114486
sS'nR'
p516
F0.08815726056739356
sS'nS'
p517
F0.4
sS'storageS'
p518
F1.0
sS'vz'
p519
g25
ssa(dp520
I1
(dp521
g3
F0.004959665290648611
sg502
F0.41037077481689405
sg5
F2.113675256794812
sg503
F50.0
sg504
F678.461318600706
sg8
F0.3572729542613262
sg505
F1.0
sg506
F0.23310350197534283
sg507
F1.0
sg508
F100.0
sg509
g14
sg510
F0.19
sg511
F0.375026801497367
sg512
F0.898124797364133
sg513
F0.4061132500612509
sg514
F0.6
sg515
F0.48057945965013754
sg516
F0.3278560185660891
sg517
F0.4
sg518
F1.0
sg519
g25
ssa(dp522
I1
(dp523
g3
F0.007559159716831359
sg502
F0.38261904185943013
sg5
F1.8961991921547812
sg503
F50.0
sg504
F672.5360779771091
sg8
F0.5821900697376331
sg505
F1.0
sg506
F0.1389914010437265
sg507
F1.0
sg508
F100.0
sg509
g14
sg510
F0.19
sg511
F0.33715677841726954
sg512
F0.9506125286987783
sg513
F0.520718415980715
sg514
F0.6
sg515
F0.4388019372933403
sg516
F0.13828003349177703
sg517
F0.4
sg518
F1.0
sg519
g25
ssa(dp524
I1
(dp525
g3
F0.004213802356108772
sg502
F0.45330111581603527
sg5
F2.1344150767491388
sg503
F50.0
sg504
F566.2340960303573
sg8
F0.6800156013542541
sg505
F1.0
sg506
F0.02555238867357286
sg507
F1.0
sg508
F100.0
sg509
g14
sg510
F0.19
sg511
F0.3578284245839628
sg512
F0.8775228986115275
sg513
F0.5135605935018951
sg514
F0.6
sg515
F0.423628601588176
sg516
F0.30569507987375394
sg517
F0.4
sg518
F1.0
sg519
g25
ssa(dp526
I1
(dp527
g3
F0.002708804960619806
sg502
F0.3434382014310716
sg5
F2.2506620264526846
sg503
F50.0
sg504
F637.4524293674308
sg8
F0.6686822356936956
sg505
F1.0
sg506
F0.30571676007342274
sg507
F1.0
sg508
F100.0
sg509
g14
sg510
F0.19
sg511
F0.3616265272735487
sg512
F0.9508437368588322
sg513
F0.7407859712282161
sg514
F0.6
sg515
F0.534679227253805
sg516
F0.17206570746716618
sg517
F0.4
sg518
F1.0
sg519
g25
ssa(dp528
I1
(dp529
g3
F0.0014961533413551842
sg502
F0.3211659929802965
sg5
F2.4717100751206584
sg503
F50.0
sg504
F753.2816390825244
sg8
F0.6758925306126697
sg505
F1.0
sg506
F0.21899843786733098
sg507
F1.0
sg508
F100.0
sg509
g14
sg510
F0.19
sg511
F0.3329586579064798
sg512
F0.9870280416917783
sg513
F0.6523820727434426
sg514
F0.6
sg515
F0.3827045428266777
sg516
F0.3142109296602047
sg517
F0.4
sg518
F1.0
sg519
g25
ssa(dp530
I1
(dp531
g3
F0.003880126142509349
sg502
F0.48865759483157756
sg5
F2.2150513168977533
sg503
F50.0
sg504
F775.9962527971983
sg8
F0.2770604567012299
sg505
F1.0
sg506
F0.18269835684996805
sg507
F1.0
sg508
F100.0
sg509
g14
sg510
F0.19
sg511
F0.3634334007599748
sg512
F0.8826399353074155
sg513
F0.8233866832599602
sg514
F0.6
sg515
F0.5886873486217571
sg516
F0.06415014668279108
sg517
F0.4
sg518
F1.0
sg519
g25
ssa(dp532
I1
(dp533
g3
F0.002296676525869444
sg502
F0.3108539423640099
sg5
F2.4821941005266854
sg503
F50.0
sg504
F1149.041765100964
sg8
F0.3782987402624486
sg505
F1.0
sg506
F0.1611862222196805
sg507
F1.0
sg508
F100.0
sg509
g14
sg510
F0.19
sg511
F0.31182576119828825
sg512
F0.9707238615661049
sg513
F0.24667410999587291
sg514
F0.6
sg515
F0.45809095253238735
sg516
F0.3828377917286415
sg517
F0.4
sg518
F1.0
sg519
g25
ssa(dp534
I1
(dp535
g3
F0.009999385413117168
sg502
F0.45983765094305823
sg5
F1.9306646755760468
sg503
F50.0
sg504
F930.8837271434606
sg8
F0.6484121657884407
sg505
F1.0
sg506
F0.34563276032810275
sg507
F1.0
sg508
F100.0
sg509
g14
sg510
F0.19
sg511
F0.3409016536469002
sg512
F0.8258383845260657
sg513
F0.8457544091418544
sg514
F0.6
sg515
F0.3495186082728539
sg516
F0.3884559440490024
sg517
F0.4
sg518
F1.0
sg519
g25
ssa(dp536
I1
(dp537
g3
F0.0065748122235488315
sg502
F0.4685472581903628
sg5
F2.1618292531272942
sg503
F50.0
sg504
F895.5770707324165
sg8
F0.5901666874219093
sg505
F1.0
sg506
F0.07110189759925367
sg507
F1.0
sg508
F100.0
sg509
g14
sg510
F0.19
sg511
F0.3989738758413387
sg512
F0.9042190643106569
sg513
F0.29663136601836904
sg514
F0.6
sg515
F0.483471545741059
sg516
F0.22354960214095893
sg517
F0.4
sg518
F1.0
sg519
g25
ssa(dp538
I1
(dp539
g3
F0.007001309864314884
sS'k12'
p540
F0.32955643685558905
sg5
F1.9685153990701563
sS'zrS'
p541
F50.0
sS'zrR'
p542
F518.4604649658985
sg8
F0.4415785715959011
sS'res2'
p543
F1.0
sS's0R'
p544
F0.032938093594840366
sS'res1'
p545
F1.0
sS'storageR'
p546
F100.0
sS'gz'
p547
g14
sS's0S'
p548
F0.19
sS'k1'
p549
F0.3460859334888816
sS'eta'
p550
F0.8421026275199093
sS'stR'
p551
F0.47905946624385254
sS'stS'
p552
F0.6
sS'alpha'
p553
F0.49235363261457005
sS'nR'
p554
F0.18157441599455743
sS'nS'
p555
F0.4
sS'storageS'
p556
F1.0
sS'vz'
p557
g25
ssa(dp558
I1
(dp559
g3
F0.005525644076587472
sg540
F0.32733415548153066
sg5
F2.169007993232545
sg541
F50.0
sg542
F1185.1257622460757
sg8
F0.39062699346074037
sg543
F1.0
sg544
F0.05527834048672329
sg545
F1.0
sg546
F100.0
sg547
g14
sg548
F0.19
sg549
F0.3663262769080553
sg550
F0.8990765587734986
sg551
F0.6245553491305522
sg552
F0.6
sg553
F0.5089677842004642
sg554
F0.05711586888029779
sg555
F0.4
sg556
F1.0
sg557
g25
ssa(dp560
I1
(dp561
g3
F0.005304963716934173
sg540
F0.31196314034228234
sg5
F2.0137325139774815
sg541
F50.0
sg542
F653.51154212853
sg8
F0.4604452151158911
sg543
F1.0
sg544
F0.2503363739622812
sg545
F1.0
sg546
F100.0
sg547
g14
sg548
F0.19
sg549
F0.3359018068952138
sg550
F0.9720181899831006
sg551
F0.4633961174194191
sg552
F0.6
sg553
F0.42932976096199404
sg554
F0.2223576534088578
sg555
F0.4
sg556
F1.0
sg557
g25
ssa(dp562
I1
(dp563
g3
F0.009252325106378672
sg540
F0.38036042871244236
sg5
F1.837987202876063
sg541
F50.0
sg542
F586.3144626049491
sg8
F0.357154084989197
sg543
F1.0
sg544
F0.028864051496115775
sg545
F1.0
sg546
F100.0
sg547
g14
sg548
F0.19
sg549
F0.35327484610383103
sg550
F0.9825210537060547
sg551
F0.18043287979110023
sg552
F0.6
sg553
F0.6080126193274816
sg554
F0.34124106175858865
sg555
F0.4
sg556
F1.0
sg557
g25
ssa(dp564
I1
(dp565
g3
F0.006092287927994126
sg540
F0.32449222756209595
sg5
F1.8641831101968163
sg541
F50.0
sg542
F1117.0665455848284
sg8
F0.6224966084647857
sg543
F1.0
sg544
F0.04154264691434939
sg545
F1.0
sg546
F100.0
sg547
g14
sg548
F0.19
sg549
F0.2987653322372383
sg550
F0.9763856385819636
sg551
F0.22114270442762907
sg552
F0.6
sg553
F0.47315617802743243
sg554
F0.18868880216083408
sg555
F0.4
sg556
F1.0
sg557
g25
ssa(dp566
I1
(dp567
g3
F0.004823934169242374
sg540
F0.3073224203632972
sg5
F2.1701425849110874
sg541
F50.0
sg542
F580.7693596481677
sg8
F0.6418007943122547
sg543
F1.0
sg544
F0.15564335868879714
sg545
F1.0
sg546
F100.0
sg547
g14
sg548
F0.19
sg549
F0.30758112083257316
sg550
F0.8831536071904156
sg551
F0.8414294816964314
sg552
F0.6
sg553
F0.3828119804187428
sg554
F0.19454896434157404
sg555
F0.4
sg556
F1.0
sg557
g25
ssa(dp568
I1
(dp569
g3
F0.002427362447475469
sg540
F0.3837556522582958
sg5
F2.4157820549797036
sg541
F50.0
sg542
F734.340483596168
sg8
F0.29470593017983027
sg543
F1.0
sg544
F0.0246627298811946
sg545
F1.0
sg546
F100.0
sg547
g14
sg548
F0.19
sg549
F0.33638836733406074
sg550
F0.914577373510455
sg551
F0.6607595238057582
sg552
F0.6
sg553
F0.4791295361723873
sg554
F0.07743316516262459
sg555
F0.4
sg556
F1.0
sg557
g25
ssa(dp570
I1
(dp571
g3
F0.007899624960588653
sg540
F0.384783203134216
sg5
F2.1256221771341357
sg541
F50.0
sg542
F1002.5353871547466
sg8
F0.5748131099255996
sg543
F1.0
sg544
F0.0972429307175097
sg545
F1.0
sg546
F100.0
sg547
g14
sg548
F0.19
sg549
F0.3597648427129899
sg550
F0.9000884332360538
sg551
F0.8449380739757169
sg552
F0.6
sg553
F0.47979437507483197
sg554
F0.07063923137333925
sg555
F0.4
sg556
F1.0
sg557
g25
ssa(dp572
I1
(dp573
g3
F0.008399991057767037
sg540
F0.34778665645223616
sg5
F1.9430359382464044
sg541
F50.0
sg542
F870.4474513380446
sg8
F0.5472942801221052
sg543
F1.0
sg544
F0.17443239242327324
sg545
F1.0
sg546
F100.0
sg547
g14
sg548
F0.19
sg549
F0.3744681223522665
sg550
F0.9693997744975932
sg551
F0.39124189691189837
sg552
F0.6
sg553
F0.3750827904521235
sg554
F0.2641883295830612
sg555
F0.4
sg556
F1.0
sg557
g25
ssa(dp574
I1
(dp575
g3
F0.0031784078641667168
sg540
F0.49190385962381195
sg5
F2.320308866440882
sg541
F50.0
sg542
F625.6768566303423
sg8
F0.1543388722374462
sg543
F1.0
sg544
F0.338820741869395
sg545
F1.0
sg546
F100.0
sg547
g14
sg548
F0.19
sg549
F0.37068408256439633
sg550
F0.9350722595402026
sg551
F0.5904846598661048
sg552
F0.6
sg553
F0.4886076434185365
sg554
F0.23353320412978998
sg555
F0.4
sg556
F1.0
sg557
g25
ssa(dp576
I1
(dp577
g3
F0.007248209118239321
sS'k12'
p578
F0.3732076158926142
sg5
F2.1365940394412437
sS'zrS'
p579
F50.0
sS'zrR'
p580
F1108.5020796930312
sg8
F0.6520717184038527
sS'res2'
p581
F1.0
sS's0R'
p582
F0.03973533578742457
sS'res1'
p583
F1.0
sS'storageR'
p584
F100.0
sS'gz'
p585
g14
sS's0S'
p586
F0.19
sS'k1'
p587
F0.37590280060781267
sS'eta'
p588
F0.9725095301645323
sS'stR'
p589
F0.6284165022621776
sS'stS'
p590
F0.6
sS'alpha'
p591
F0.3078350735145387
sS'nR'
p592
F0.192602063482398
sS'nS'
p593
F0.4
sS'storageS'
p594
F1.0
sS'vz'
p595
g25
ssa(dp596
I1
(dp597
g3
F0.006525885774762055
sg578
F0.3409677213576029
sg5
F1.9410991978098562
sg579
F50.0
sg580
F622.7265453689098
sg8
F0.4728629296185324
sg581
F1.0
sg582
F0.25201960181001604
sg583
F1.0
sg584
F100.0
sg585
g14
sg586
F0.19
sg587
F0.34943274115704115
sg588
F0.9709727135081585
sg589
F0.47327487152582415
sg590
F0.6
sg591
F0.38807974840142007
sg592
F0.2812891719012165
sg593
F0.4
sg594
F1.0
sg595
g25
ssa(dp598
I1
(dp599
g3
F0.0017388484386654138
sg578
F0.4189084990323002
sg5
F2.4685027292087627
sg579
F50.0
sg580
F1091.8379987239296
sg8
F0.3897054448019749
sg581
F1.0
sg582
F0.27895196275822726
sg583
F1.0
sg584
F100.0
sg585
g14
sg586
F0.19
sg587
F0.3860429612915526
sg588
F0.9051131239521991
sg589
F0.7879048520555142
sg590
F0.6
sg591
F0.5358698297749475
sg592
F0.06208104310927123
sg593
F0.4
sg594
F1.0
sg595
g25
ssa(dp600
I1
(dp601
g3
F0.002052636596877828
sg578
F0.4884019393133838
sg5
F2.446252974547586
sg579
F50.0
sg580
F1064.7243808669305
sg8
F0.2631554186139561
sg581
F1.0
sg582
F0.2399971569901101
sg583
F1.0
sg584
F100.0
sg585
g14
sg586
F0.19
sg587
F0.36734029339830804
sg588
F0.8178371265433444
sg589
F0.5313890776559117
sg590
F0.6
sg591
F0.5649551653261731
sg592
F0.10323766123332381
sg593
F0.4
sg594
F1.0
sg595
g25
ssa(dp602
I1
(dp603
g3
F0.0020130051055972558
sg578
F0.38577638031103556
sg5
F2.3050939542392053
sg579
F50.0
sg580
F622.7359563667444
sg8
F0.6244951590889766
sg581
F1.0
sg582
F0.0952928842797411
sg583
F1.0
sg584
F100.0
sg585
g14
sg586
F0.19
sg587
F0.34870054318851873
sg588
F0.8821635399417079
sg589
F0.5206991964839456
sg590
F0.6
sg591
F0.38826235631350753
sg592
F0.32634079054111303
sg593
F0.4
sg594
F1.0
sg595
g25
ssa(dp604
I1
(dp605
g3
F0.005855025266382957
sg578
F0.43478799035402793
sg5
F1.9939378678811068
sg579
F50.0
sg580
F650.6873910407714
sg8
F0.620626775383293
sg581
F1.0
sg582
F0.3612103867823997
sg583
F1.0
sg584
F100.0
sg585
g14
sg586
F0.19
sg587
F0.36378679386968754
sg588
F0.9759345842230234
sg589
F0.7053307237293142
sg590
F0.6
sg591
F0.4699457859434475
sg592
F0.20314893194612874
sg593
F0.4
sg594
F1.0
sg595
g25
ssa(dp606
I1
(dp607
g3
F0.0035135158973477283
sg578
F0.3026280531480713
sg5
F2.2194177745926567
sg579
F50.0
sg580
F1089.1991647451534
sg8
F0.2913869669356387
sg581
F1.0
sg582
F0.3051055094357126
sg583
F1.0
sg584
F100.0
sg585
g14
sg586
F0.19
sg587
F0.30053679902546465
sg588
F0.9095529566256122
sg589
F0.40281909110434333
sg590
F0.6
sg591
F0.4492442202543751
sg592
F0.3102099862610284
sg593
F0.4
sg594
F1.0
sg595
g25
ssa(dp608
I1
(dp609
g3
F0.009985499983016555
sg578
F0.3388193789637529
sg5
F1.942928915962353
sg579
F50.0
sg580
F902.4755296717057
sg8
F0.71208422772475
sg581
F1.0
sg582
F0.07434376412958237
sg583
F1.0
sg584
F100.0
sg585
g14
sg586
F0.19
sg587
F0.3737306466413478
sg588
F0.9402013321556711
sg589
F0.695507016022296
sg590
F0.6
sg591
F0.3703422794331699
sg592
F0.33799088900810104
sg593
F0.4
sg594
F1.0
sg595
g25
ssa(dp610
I1
(dp611
g3
F0.007093084858147844
sg578
F0.4617800586170624
sg5
F2.0851397627041006
sg579
F50.0
sg580
F1012.4265161252639
sg8
F0.6487906607515533
sg581
F1.0
sg582
F0.0016201760359686457
sg583
F1.0
sg584
F100.0
sg585
g14
sg586
F0.19
sg587
F0.3335283792721786
sg588
F0.9579868400496372
sg589
F0.41381009995265683
sg590
F0.6
sg591
F0.43581364889327623
sg592
F0.17855452497254082
sg593
F0.4
sg594
F1.0
sg595
g25
ssa(dp612
I1
(dp613
g3
F0.003908665148505036
sg578
F0.3933064658369851
sg5
F2.382760553487371
sg579
F50.0
sg580
F1033.018036036963
sg8
F0.6714663512388227
sg581
F1.0
sg582
F0.31133331593041724
sg583
F1.0
sg584
F100.0
sg585
g14
sg586
F0.19
sg587
F0.39633397981732466
sg588
F0.9958528089917947
sg589
F0.6290540198775023
sg590
F0.6
sg591
F0.3833672276090979
sg592
F0.23851048008972064
sg593
F0.4
sg594
F1.0
sg595
g25
ssa(dp614
I1
(dp615
g3
F0.005605859023163219
sS'k12'
p616
F0.45766274130096196
sg5
F2.0008702555497324
sS'zrS'
p617
F50.0
sS'zrR'
p618
F1059.3534540337328
sg8
F0.5662270837941068
sS'res2'
p619
F1.0
sS's0R'
p620
F0.33184735831588663
sS'res1'
p621
F1.0
sS'storageR'
p622
F100.0
sS'gz'
p623
g14
sS's0S'
p624
F0.19
sS'k1'
p625
F0.39069922037487126
sS'eta'
p626
F0.8855633210161079
sS'stR'
p627
F0.48801237864325475
sS'stS'
p628
F0.6
sS'alpha'
p629
F0.4617724028894275
sS'nR'
p630
F0.27817332239815845
sS'nS'
p631
F0.4
sS'storageS'
p632
F1.0
sS'vz'
p633
g25
ssa(dp634
I1
(dp635
g3
F0.0027014086805211444
sg616
F0.4774432623044883
sg5
F2.3782687996235516
sg617
F50.0
sg618
F919.6805115138159
sg8
F0.5148881294530075
sg619
F1.0
sg620
F0.0115618226402745
sg621
F1.0
sg622
F100.0
sg623
g14
sg624
F0.19
sg625
F0.3798597727193274
sg626
F0.7846684661444512
sg627
F0.8697522280240649
sg628
F0.6
sg629
F0.45151681855386444
sg630
F0.07766031281875359
sg631
F0.4
sg632
F1.0
sg633
g25
ssa(dp636
I1
(dp637
g3
F0.004549241251459278
sg616
F0.32150402575212755
sg5
F2.083033844362627
sg617
F50.0
sg618
F723.648726985615
sg8
F0.5696447796998693
sg619
F1.0
sg620
F0.15984123522863106
sg621
F1.0
sg622
F100.0
sg623
g14
sg624
F0.19
sg625
F0.3581718261831147
sg626
F0.9270779027290235
sg627
F0.3111903985765797
sg628
F0.6
sg629
F0.4694613911201435
sg630
F0.3911666474514378
sg631
F0.4
sg632
F1.0
sg633
g25
ssa(dp638
I1
(dp639
g3
F0.001220505941666495
sg616
F0.4992649521461777
sg5
F2.484672691960225
sg617
F50.0
sg618
F544.8482826404888
sg8
F0.5260068864798383
sg619
F1.0
sg620
F0.2358060412344949
sg621
F1.0
sg622
F100.0
sg623
g14
sg624
F0.19
sg625
F0.36955491017264575
sg626
F0.9136350384928815
sg627
F0.6655391839159971
sg628
F0.6
sg629
F0.40270275139026285
sg630
F0.18665930989649757
sg631
F0.4
sg632
F1.0
sg633
g25
ssa(dp640
I1
(dp641
g3
F0.0031242389399546966
sg616
F0.3524347787129203
sg5
F2.384591260345622
sg617
F50.0
sg618
F1173.5305712580532
sg8
F0.66799831191252
sg619
F1.0
sg620
F0.17712100467052116
sg621
F1.0
sg622
F100.0
sg623
g14
sg624
F0.19
sg625
F0.39089129677911366
sg626
F0.9828341171692159
sg627
F0.6893810780985715
sg628
F0.6
sg629
F0.5044948602486063
sg630
F0.10881083862361554
sg631
F0.4
sg632
F1.0
sg633
g25
ssa(dp642
I1
(dp643
g3
F0.004205198327966305
sg616
F0.4338787738667942
sg5
F2.0302703138936984
sg617
F50.0
sg618
F683.4435500672307
sg8
F0.6341087972407504
sg619
F1.0
sg620
F0.2963968939833916
sg621
F1.0
sg622
F100.0
sg623
g14
sg624
F0.19
sg625
F0.3430048531958186
sg626
F0.876117175970526
sg627
F0.6096860292663977
sg628
F0.6
sg629
F0.4337559386401885
sg630
F0.32552633435154193
sg631
F0.4
sg632
F1.0
sg633
g25
ssa(dp644
I1
(dp645
g3
F0.0082687218161305
sg616
F0.31086115742456627
sg5
F1.9542864936554782
sg617
F50.0
sg618
F800.8020861646564
sg8
F0.7248738149562178
sg619
F1.0
sg620
F0.28225100197878306
sg621
F1.0
sg622
F100.0
sg623
g14
sg624
F0.19
sg625
F0.31618992958154657
sg626
F0.9358561184025653
sg627
F0.7481696751869431
sg628
F0.6
sg629
F0.3922983141688575
sg630
F0.3927013195020586
sg631
F0.4
sg632
F1.0
sg633
g25
ssa(dp646
I1
(dp647
g3
F0.0017797527124269153
sg616
F0.45038590132991685
sg5
F2.334520371845489
sg617
F50.0
sg618
F964.0821501475366
sg8
F0.49970720170472616
sg619
F1.0
sg620
F0.1902203913279059
sg621
F1.0
sg622
F100.0
sg623
g14
sg624
F0.19
sg625
F0.3958231543702682
sg626
F0.924564377305231
sg627
F0.4187756330121738
sg628
F0.6
sg629
F0.5275522934131711
sg630
F0.13997333067717763
sg631
F0.4
sg632
F1.0
sg633
g25
ssa(dp648
I1
(dp649
g3
F0.008282439313612295
sg616
F0.3823743867367931
sg5
F1.9690543347230065
sg617
F50.0
sg618
F566.6395487721127
sg8
F0.6102620103296345
sg619
F1.0
sg620
F0.023136597593948195
sg621
F1.0
sg622
F100.0
sg623
g14
sg624
F0.19
sg625
F0.35706486835263346
sg626
F0.9843650886931017
sg627
F0.479036959059452
sg628
F0.6
sg629
F0.47037625168562575
sg630
F0.18111314443854412
sg631
F0.4
sg632
F1.0
sg633
g25
ssa(dp650
I1
(dp651
g3
F0.005819504069856103
sg616
F0.3666219669200696
sg5
F1.9872303732506582
sg617
F50.0
sg618
F861.9126907016838
sg8
F0.5843228498150238
sg619
F1.0
sg620
F0.11579022292717984
sg621
F1.0
sg622
F100.0
sg623
g14
sg624
F0.19
sg625
F0.3572000150788611
sg626
F0.9499000076514839
sg627
F0.38528378264206764
sg628
F0.6
sg629
F0.6285424913155454
sg630
F0.12396737571481231
sg631
F0.4
sg632
F1.0
sg633
g25
ssa(dp652
I1
(dp653
g3
F0.005937673429412121
sS'k12'
p654
F0.4536441302270155
sg5
F2.1103719171351107
sS'zrS'
p655
F50.0
sS'zrR'
p656
F822.1383282551669
sg8
F0.5143841471562841
sS'res2'
p657
F1.0
sS's0R'
p658
F0.1392796703985065
sS'res1'
p659
F1.0
sS'storageR'
p660
F100.0
sS'gz'
p661
g14
sS's0S'
p662
F0.19
sS'k1'
p663
F0.3356490551279506
sS'eta'
p664
F0.9137612206625321
sS'stR'
p665
F0.45428221678184044
sS'stS'
p666
F0.6
sS'alpha'
p667
F0.5291151859049775
sS'nR'
p668
F0.12862370936342146
sS'nS'
p669
F0.4
sS'storageS'
p670
F1.0
sS'vz'
p671
g25
ssa(dp672
I1
(dp673
g3
F0.0014747546928650162
sg654
F0.32933652137114283
sg5
F2.4707219872173805
sg655
F50.0
sg656
F1191.545685846633
sg8
F0.6834269169153246
sg657
F1.0
sg658
F0.03763038089927711
sg659
F1.0
sg660
F100.0
sg661
g14
sg662
F0.19
sg663
F0.3278546666264044
sg664
F0.9894517809718857
sg665
F0.39091270936312295
sg666
F0.6
sg667
F0.43483350169622437
sg668
F0.18118855410202267
sg669
F0.4
sg670
F1.0
sg671
g25
ssa(dp674
I1
(dp675
g3
F0.0040027226238386285
sg654
F0.4899205001838455
sg5
F2.316241838260731
sg655
F50.0
sg656
F1110.3542667608538
sg8
F0.6390963980379709
sg657
F1.0
sg658
F0.04706938300881363
sg659
F1.0
sg660
F100.0
sg661
g14
sg662
F0.19
sg663
F0.37199447057001944
sg664
F0.9341934370293444
sg665
F0.4396275187045643
sg666
F0.6
sg667
F0.3325384350377036
sg668
F0.17858654610343197
sg669
F0.4
sg670
F1.0
sg671
g25
ssa(dp676
I1
(dp677
g3
F0.004335681731715882
sg654
F0.47004234802145506
sg5
F2.357968713493569
sg655
F50.0
sg656
F1054.2008546235243
sg8
F0.5314760885497327
sg657
F1.0
sg658
F0.07276592403897397
sg659
F1.0
sg660
F100.0
sg661
g14
sg662
F0.19
sg663
F0.36226800053829816
sg664
F0.8714382139015018
sg665
F0.43049713465931017
sg666
F0.6
sg667
F0.45593073618588303
sg668
F0.14724666953688828
sg669
F0.4
sg670
F1.0
sg671
g25
ssa(dp678
I1
(dp679
g3
F0.00987495586723234
sg654
F0.3154040312568798
sg5
F1.8332774801056873
sg655
F50.0
sg656
F862.2621632209427
sg8
F0.663150270651807
sg657
F1.0
sg658
F0.04890387591373316
sg659
F1.0
sg660
F100.0
sg661
g14
sg662
F0.19
sg663
F0.34343965642466967
sg664
F0.8978431610968879
sg665
F0.7059871010806308
sg666
F0.6
sg667
F0.38665157094743524
sg668
F0.13118428758775041
sg669
F0.4
sg670
F1.0
sg671
g25
ssa(dp680
I1
(dp681
g3
F0.007819818330486063
sg654
F0.42614782480071467
sg5
F1.9633705001899704
sg655
F50.0
sg656
F958.8996438133629
sg8
F0.4483385912350739
sg657
F1.0
sg658
F0.0907392628784788
sg659
F1.0
sg660
F100.0
sg661
g14
sg662
F0.19
sg663
F0.3725508851448619
sg664
F0.9861095655057093
sg665
F0.3435464788317659
sg666
F0.6
sg667
F0.5805286455733315
sg668
F0.12260168914505686
sg669
F0.4
sg670
F1.0
sg671
g25
ssa(dp682
I1
(dp683
g3
F0.005387713296861165
sg654
F0.4072101905682499
sg5
F2.043136337712464
sg655
F50.0
sg656
F844.3582429614735
sg8
F0.2866333932944012
sg657
F1.0
sg658
F0.19664372555788312
sg659
F1.0
sg660
F100.0
sg661
g14
sg662
F0.19
sg663
F0.35733097570642836
sg664
F0.9012586492778325
sg665
F0.5928002406438357
sg666
F0.6
sg667
F0.41222121560469094
sg668
F0.10582597343516403
sg669
F0.4
sg670
F1.0
sg671
g25
ssa(dp684
I1
(dp685
g3
F0.0031132251737211454
sg654
F0.3562545959853617
sg5
F2.372898273293882
sg655
F50.0
sg656
F657.4005090142954
sg8
F0.5931163767595263
sg657
F1.0
sg658
F0.04003877240320635
sg659
F1.0
sg660
F100.0
sg661
g14
sg662
F0.19
sg663
F0.35287915099848677
sg664
F0.8420010471635029
sg665
F0.8935446962043555
sg666
F0.6
sg667
F0.3927749530391506
sg668
F0.15277624809188675
sg669
F0.4
sg670
F1.0
sg671
g25
ssa(dp686
I1
(dp687
g3
F0.008968272191974899
sg654
F0.32330688822087505
sg5
F1.9392736451245436
sg655
F50.0
sg656
F994.4507806916032
sg8
F0.5294184395039058
sg657
F1.0
sg658
F0.12005475565987528
sg659
F1.0
sg660
F100.0
sg661
g14
sg662
F0.19
sg663
F0.3422931039768027
sg664
F0.9379464863351662
sg665
F0.24415898025713495
sg666
F0.6
sg667
F0.5419656179050748
sg668
F0.2511812120798296
sg669
F0.4
sg670
F1.0
sg671
g25
ssa(dp688
I1
(dp689
g3
F0.0031426148650037654
sg654
F0.4206361866732119
sg5
F2.3994787008896843
sg655
F50.0
sg656
F1015.671401508845
sg8
F0.5461390352834142
sg657
F1.0
sg658
F0.31392806785333416
sg659
F1.0
sg660
F100.0
sg661
g14
sg662
F0.19
sg663
F0.3983105264410192
sg664
F0.9260238124381621
sg665
F0.4323332653533162
sg666
F0.6
sg667
F0.39579279785632093
sg668
F0.3637184990276742
sg669
F0.4
sg670
F1.0
sg671
g25
ssa(dp690
I1
(dp691
g3
F0.002747860636480398
sS'k12'
p692
F0.34236078232411576
sg5
F2.4239532357725695
sS'zrS'
p693
F50.0
sS'zrR'
p694
F735.1102168788818
sg8
F0.5546313235323167
sS'res2'
p695
F1.0
sS's0R'
p696
F0.12026599404821346
sS'res1'
p697
F1.0
sS'storageR'
p698
F100.0
sS'gz'
p699
g14
sS's0S'
p700
F0.19
sS'k1'
p701
F0.32071331651049945
sS'eta'
p702
F0.9889509065092676
sS'stR'
p703
F0.5364264537221451
sS'stS'
p704
F0.6
sS'alpha'
p705
F0.4943214501307057
sS'nR'
p706
F0.1237582674559045
sS'nS'
p707
F0.4
sS'storageS'
p708
F1.0
sS'vz'
p709
g25
ssa(dp710
I1
(dp711
g3
F0.0027181626645346353
sg692
F0.45745607788999865
sg5
F2.417711482719939
sg693
F50.0
sg694
F1122.0856845106664
sg8
F0.5439602735092536
sg695
F1.0
sg696
F0.21756384296094622
sg697
F1.0
sg698
F100.0
sg699
g14
sg700
F0.19
sg701
F0.3634393193823539
sg702
F0.8469492825149643
sg703
F0.36394527023199363
sg704
F0.6
sg705
F0.41758401914291177
sg706
F0.38443692164837023
sg707
F0.4
sg708
F1.0
sg709
g25
ssa(dp712
I1
(dp713
g3
F0.007767429796784218
sg692
F0.3814158100917628
sg5
F1.8961568197237848
sg693
F50.0
sg694
F975.2295196179383
sg8
F0.663407722083952
sg695
F1.0
sg696
F0.03198624221317852
sg697
F1.0
sg698
F100.0
sg699
g14
sg700
F0.19
sg701
F0.33021685391336786
sg702
F0.8936652113540621
sg703
F0.8342066823251664
sg704
F0.6
sg705
F0.36477967162271313
sg706
F0.23159777277758375
sg707
F0.4
sg708
F1.0
sg709
g25
ssa(dp714
I1
(dp715
g3
F0.002677885211153432
sg692
F0.34807176519303046
sg5
F2.4099650711743017
sg693
F50.0
sg694
F992.6705044942994
sg8
F0.6080515971513685
sg695
F1.0
sg696
F0.26569029038958125
sg697
F1.0
sg698
F100.0
sg699
g14
sg700
F0.19
sg701
F0.3563601212366223
sg702
F0.9065987007289256
sg703
F0.6355388469280077
sg704
F0.6
sg705
F0.4014945875301795
sg706
F0.20320449877423494
sg707
F0.4
sg708
F1.0
sg709
g25
ssa(dp716
I1
(dp717
g3
F0.003096085186393399
sg692
F0.35586266754517926
sg5
F2.405346377684068
sg693
F50.0
sg694
F883.7180671605597
sg8
F0.6765155872359035
sg695
F1.0
sg696
F0.14135471373095307
sg697
F1.0
sg698
F100.0
sg699
g14
sg700
F0.19
sg701
F0.3422304326502992
sg702
F0.9615988470969931
sg703
F0.8347954209025826
sg704
F0.6
sg705
F0.38862926086339905
sg706
F0.22993003017769692
sg707
F0.4
sg708
F1.0
sg709
g25
ssa(dp718
I1
(dp719
g3
F0.007540312491676667
sg692
F0.49974833278422526
sg5
F2.142675346106498
sg693
F50.0
sg694
F558.67846918661
sg8
F0.5145399474832671
sg695
F1.0
sg696
F0.11414818825775185
sg697
F1.0
sg698
F100.0
sg699
g14
sg700
F0.19
sg701
F0.37166563102569017
sg702
F0.926913562113536
sg703
F0.3744788052233885
sg704
F0.6
sg705
F0.5793965138027991
sg706
F0.23036605827290574
sg707
F0.4
sg708
F1.0
sg709
g25
ssa(dp720
I1
(dp721
g3
F0.004968698121712646
sg692
F0.3174583068394602
sg5
F2.0796448578707016
sg693
F50.0
sg694
F1037.9064925660302
sg8
F0.6897844614993872
sg695
F1.0
sg696
F0.00523149417339468
sg697
F1.0
sg698
F100.0
sg699
g14
sg700
F0.19
sg701
F0.3494360374408043
sg702
F0.9923870307137788
sg703
F0.3315301252296784
sg704
F0.6
sg705
F0.34685627605472574
sg706
F0.19019105128633218
sg707
F0.4
sg708
F1.0
sg709
g25
ssa(dp722
I1
(dp723
g3
F0.002215037867937095
sg692
F0.4614128567280339
sg5
F2.4379080847234755
sg693
F50.0
sg694
F657.1861045964681
sg8
F0.5947086380612071
sg695
F1.0
sg696
F0.3980622226485673
sg697
F1.0
sg698
F100.0
sg699
g14
sg700
F0.19
sg701
F0.3479259386942689
sg702
F0.8978937347363763
sg703
F0.7982560753080726
sg704
F0.6
sg705
F0.44455691809799275
sg706
F0.15960908141550653
sg707
F0.4
sg708
F1.0
sg709
g25
ssa(dp724
I1
(dp725
g3
F0.007593544332322727
sg692
F0.38246131494909996
sg5
F2.0151786218092096
sg693
F50.0
sg694
F752.2462014363148
sg8
F0.625568626145294
sg695
F1.0
sg696
F0.3805980373186731
sg697
F1.0
sg698
F100.0
sg699
g14
sg700
F0.19
sg701
F0.31752415033060544
sg702
F0.9281501053684653
sg703
F0.840209178041515
sg704
F0.6
sg705
F0.43118228071219467
sg706
F0.20530293979796763
sg707
F0.4
sg708
F1.0
sg709
g25
ssa(dp726
I1
(dp727
g3
F0.004878294270160401
sg692
F0.3638051359047955
sg5
F2.1146310475851102
sg693
F50.0
sg694
F1085.333655181783
sg8
F0.6239360740426211
sg695
F1.0
sg696
F0.06150744112312099
sg697
F1.0
sg698
F100.0
sg699
g14
sg700
F0.19
sg701
F0.3774296833398598
sg702
F0.9971637659485283
sg703
F0.8389503961832195
sg704
F0.6
sg705
F0.5597014742717208
sg706
F0.052922283040337255
sg707
F0.4
sg708
F1.0
sg709
g25
ssa(dp728
I1
(dp729
g3
F0.00981501622886645
sS'k12'
p730
F0.43269168767241706
sg5
F1.9743404666147408
sS'zrS'
p731
F50.0
sS'zrR'
p732
F654.323022686868
sg8
F0.6450303776630412
sS'res2'
p733
F1.0
sS's0R'
p734
F0.17360244985378948
sS'res1'
p735
F1.0
sS'storageR'
p736
F100.0
sS'gz'
p737
g14
sS's0S'
p738
F0.19
sS'k1'
p739
F0.35392067990452936
sS'eta'
p740
F0.9182661184335794
sS'stR'
p741
F0.7732905991575961
sS'stS'
p742
F0.6
sS'alpha'
p743
F0.29077755998887417
sS'nR'
p744
F0.3386990841191854
sS'nS'
p745
F0.4
sS'storageS'
p746
F1.0
sS'vz'
p747
g25
ssa(dp748
I1
(dp749
g3
F0.004142784716637946
sg730
F0.3393436288200423
sg5
F2.1469114120260544
sg731
F50.0
sg732
F1170.8422806505214
sg8
F0.7322107472636386
sg733
F1.0
sg734
F0.26047088318675454
sg735
F1.0
sg736
F100.0
sg737
g14
sg738
F0.19
sg739
F0.35947694364894334
sg740
F0.9827638670491019
sg741
F0.44043510760435933
sg742
F0.6
sg743
F0.4668679463681956
sg744
F0.3810722916658462
sg745
F0.4
sg746
F1.0
sg747
g25
ssa(dp750
I1
(dp751
g3
F0.007103633343806032
sg730
F0.40425660525318724
sg5
F2.0994714421352008
sg731
F50.0
sg732
F896.0745141961793
sg8
F0.4695728904862825
sg733
F1.0
sg734
F0.10382202812617161
sg735
F1.0
sg736
F100.0
sg737
g14
sg738
F0.19
sg739
F0.3655261253227809
sg740
F0.8691519253335422
sg741
F0.3019565634808916
sg742
F0.6
sg743
F0.5084764107164195
sg744
F0.20135071045177624
sg745
F0.4
sg746
F1.0
sg747
g25
ssa(dp752
I1
(dp753
g3
F0.006280529217871434
sg730
F0.37093232740940363
sg5
F2.061669589884473
sg731
F50.0
sg732
F683.6490051179953
sg8
F0.43651497708071363
sg733
F1.0
sg734
F0.3117213985055553
sg735
F1.0
sg736
F100.0
sg737
g14
sg738
F0.19
sg739
F0.34273444160266786
sg740
F0.9103708166017148
sg741
F0.6239804414547121
sg742
F0.6
sg743
F0.46740288612866054
sg744
F0.1937025678676461
sg745
F0.4
sg746
F1.0
sg747
g25
ssa(dp754
I1
(dp755
g3
F0.0042813080045656544
sg730
F0.31155253641562536
sg5
F2.1612929369067895
sg731
F50.0
sg732
F1129.762165431573
sg8
F0.2965852138175403
sg733
F1.0
sg734
F0.3828232161451706
sg735
F1.0
sg736
F100.0
sg737
g14
sg738
F0.19
sg739
F0.3644039111056234
sg740
F0.9912348600728103
sg741
F0.5247517222115078
sg742
F0.6
sg743
F0.36650359784209013
sg744
F0.2221695653864974
sg745
F0.4
sg746
F1.0
sg747
g25
ssa(dp756
I1
(dp757
g3
F0.006754866816325781
sg730
F0.4389439246197787
sg5
F2.193792855814083
sg731
F50.0
sg732
F909.8667835765789
sg8
F0.47315024979983544
sg733
F1.0
sg734
F0.1697388753225275
sg735
F1.0
sg736
F100.0
sg737
g14
sg738
F0.19
sg739
F0.36395163515811113
sg740
F0.9464535950156678
sg741
F0.8552506110116708
sg742
F0.6
sg743
F0.5278754183827057
sg744
F0.060734394388179916
sg745
F0.4
sg746
F1.0
sg747
g25
ssa(dp758
I1
(dp759
g3
F0.007354256344388809
sg730
F0.33813168373598895
sg5
F1.8808013375241452
sg731
F50.0
sg732
F1146.6633616965423
sg8
F0.6250069600487408
sg733
F1.0
sg734
F0.18998838464831344
sg735
F1.0
sg736
F100.0
sg737
g14
sg738
F0.19
sg739
F0.31377891509714295
sg740
F0.8552634681116834
sg741
F0.8457387164963566
sg742
F0.6
sg743
F0.30753860683386147
sg744
F0.16058385244296056
sg745
F0.4
sg746
F1.0
sg747
g25
ssa(dp760
I1
(dp761
g3
F0.0024899673227816977
sg730
F0.41392685736252316
sg5
F2.2658995636001444
sg731
F50.0
sg732
F947.4271126111616
sg8
F0.7182776780544361
sg733
F1.0
sg734
F0.2146726879052015
sg735
F1.0
sg736
F100.0
sg737
g14
sg738
F0.19
sg739
F0.334454287300669
sg740
F0.98760026435802
sg741
F0.7527584702613884
sg742
F0.6
sg743
F0.31217025163894074
sg744
F0.29155056730887624
sg745
F0.4
sg746
F1.0
sg747
g25
ssa(dp762
I1
(dp763
g3
F0.008259776597583922
sg730
F0.4107103316174723
sg5
F1.9899224337682693
sg731
F50.0
sg732
F607.4996242455879
sg8
F0.7155103728677744
sg733
F1.0
sg734
F0.06646226458425897
sg735
F1.0
sg736
F100.0
sg737
g14
sg738
F0.19
sg739
F0.3141495277330693
sg740
F0.9796654441140313
sg741
F0.6466307505731155
sg742
F0.6
sg743
F0.5000848168240355
sg744
F0.17897344164205878
sg745
F0.4
sg746
F1.0
sg747
g25
ssa(dp764
I1
(dp765
g3
F0.003977380352375439
sg730
F0.4756327073318619
sg5
F2.18615942008259
sg731
F50.0
sg732
F1066.3536600501814
sg8
F0.6999959278944311
sg733
F1.0
sg734
F0.058606464911999015
sg735
F1.0
sg736
F100.0
sg737
g14
sg738
F0.19
sg739
F0.35844163780191163
sg740
F0.8496151676980122
sg741
F0.7761312453591938
sg742
F0.6
sg743
F0.38258805673311536
sg744
F0.3740663481489681
sg745
F0.4
sg746
F1.0
sg747
g25
ssa(dp766
I1
(dp767
g3
F0.005170202121529707
sS'k12'
p768
F0.318139252876538
sg5
F2.203991103582298
sS'zrS'
p769
F50.0
sS'zrR'
p770
F674.6577421939194
sg8
F0.3831555555895966
sS'res2'
p771
F1.0
sS's0R'
p772
F0.016431317499068322
sS'res1'
p773
F1.0
sS'storageR'
p774
F100.0
sS'gz'
p775
g14
sS's0S'
p776
F0.19
sS'k1'
p777
F0.3325644252037871
sS'eta'
p778
F0.8630963085680993
sS'stR'
p779
F0.2705580625802725
sS'stS'
p780
F0.6
sS'alpha'
p781
F0.4364988077962467
sS'nR'
p782
F0.21397709593610253
sS'nS'
p783
F0.4
sS'storageS'
p784
F1.0
sS'vz'
p785
g25
ssa(dp786
I1
(dp787
g3
F0.009380880840466102
sg768
F0.49528194793000724
sg5
F2.033783578163217
sg769
F50.0
sg770
F767.4927813565316
sg8
F0.38343359759679607
sg771
F1.0
sg772
F0.1303872465001857
sg773
F1.0
sg774
F100.0
sg775
g14
sg776
F0.19
sg777
F0.3445763766156654
sg778
F0.98594260169401
sg779
F0.7195598050785649
sg780
F0.6
sg781
F0.37418547380854694
sg782
F0.0865807413352333
sg783
F0.4
sg784
F1.0
sg785
g25
ssa(dp788
I1
(dp789
g3
F0.0034214112792893474
sg768
F0.35418462999310607
sg5
F2.3077002166979574
sg769
F50.0
sg770
F609.8845080234886
sg8
F0.7082668810952912
sg771
F1.0
sg772
F0.16845630169746617
sg773
F1.0
sg774
F100.0
sg775
g14
sg776
F0.19
sg777
F0.36434813491427176
sg778
F0.9599111782800442
sg779
F0.7108554265632379
sg780
F0.6
sg781
F0.3745401524810193
sg782
F0.3960513856044474
sg783
F0.4
sg784
F1.0
sg785
g25
ssa(dp790
I1
(dp791
g3
F0.003874966749012905
sg768
F0.30561624125337866
sg5
F2.2181566450966987
sg769
F50.0
sg770
F1078.511170227382
sg8
F0.5650842043304207
sg771
F1.0
sg772
F0.35567942000542835
sg773
F1.0
sg774
F100.0
sg775
g14
sg776
F0.19
sg777
F0.35180674248770943
sg778
F0.9419448388064441
sg779
F0.48284951132919873
sg780
F0.6
sg781
F0.49719389729507196
sg782
F0.26189051714009737
sg783
F0.4
sg784
F1.0
sg785
g25
ssa(dp792
I1
(dp793
g3
F0.002354165803386749
sg768
F0.35331662869053504
sg5
F2.304536209535631
sg769
F50.0
sg770
F773.618463738843
sg8
F0.5274487002308424
sg771
F1.0
sg772
F0.2840227216117861
sg773
F1.0
sg774
F100.0
sg775
g14
sg776
F0.19
sg777
F0.36957736376126693
sg778
F0.8246769324357216
sg779
F0.6687915425958644
sg780
F0.6
sg781
F0.3192233836272614
sg782
F0.28917573135404373
sg783
F0.4
sg784
F1.0
sg785
g25
ssa(dp794
I1
(dp795
g3
F0.006883537105278987
sg768
F0.4461548288707528
sg5
F2.043887555157397
sg769
F50.0
sg770
F744.5616338122859
sg8
F0.5733201570509118
sg771
F1.0
sg772
F0.275665260254137
sg773
F1.0
sg774
F100.0
sg775
g14
sg776
F0.19
sg777
F0.34571968126171915
sg778
F0.9918614742851117
sg779
F0.8775643497289364
sg780
F0.6
sg781
F0.4588637874890677
sg782
F0.09805134002680971
sg783
F0.4
sg784
F1.0
sg785
g25
ssa(dp796
I1
(dp797
g3
F0.004017135928303132
sg768
F0.3217525490395269
sg5
F2.221015195300592
sg769
F50.0
sg770
F607.3751811290213
sg8
F0.6852630120836587
sg771
F1.0
sg772
F0.13953537281764514
sg773
F1.0
sg774
F100.0
sg775
g14
sg776
F0.19
sg777
F0.3073065035896867
sg778
F0.879848059143828
sg779
F0.5217165510898791
sg780
F0.6
sg781
F0.45154743481316184
sg782
F0.30511037371753325
sg783
F0.4
sg784
F1.0
sg785
g25
ssa(dp798
I1
(dp799
g3
F0.003190245306259683
sg768
F0.3914466086029991
sg5
F2.204766574554349
sg769
F50.0
sg770
F560.5132755756315
sg8
F0.7231150709022341
sg771
F1.0
sg772
F0.128796558834925
sg773
F1.0
sg774
F100.0
sg775
g14
sg776
F0.19
sg777
F0.32136100511135013
sg778
F0.9968269328589356
sg779
F0.5818092560169305
sg780
F0.6
sg781
F0.26559509325810965
sg782
F0.3370649298973923
sg783
F0.4
sg784
F1.0
sg785
g25
ssa(dp800
I1
(dp801
g3
F0.004445997226662812
sg768
F0.3189268301442735
sg5
F2.292363770294114
sg769
F50.0
sg770
F1073.957262131872
sg8
F0.1440364217381742
sg771
F1.0
sg772
F0.11453118801941918
sg773
F1.0
sg774
F100.0
sg775
g14
sg776
F0.19
sg777
F0.36256717096396474
sg778
F0.9818411337000764
sg779
F0.8032481341822936
sg780
F0.6
sg781
F0.4755182466453218
sg782
F0.05161527675134974
sg783
F0.4
sg784
F1.0
sg785
g25
ssa(dp802
I1
(dp803
g3
F0.005410953200730862
sg768
F0.32930151719301376
sg5
F2.012508615436013
sg769
F50.0
sg770
F1045.3856051599248
sg8
F0.678905121292162
sg771
F1.0
sg772
F0.04484758699795206
sg773
F1.0
sg774
F100.0
sg775
g14
sg776
F0.19
sg777
F0.34564153046012225
sg778
F0.9325005948633625
sg779
F0.4447794126114736
sg780
F0.6
sg781
F0.19753558089914997
sg782
F0.38041636656867633
sg783
F0.4
sg784
F1.0
sg785
g25
ssa(dp804
I1
(dp805
g3
F0.002021528664176363
sS'k12'
p806
F0.4795542736162227
sg5
F2.4568404297386874
sS'zrS'
p807
F50.0
sS'zrR'
p808
F895.5546934009941
sg8
F0.7141660206856406
sS'res2'
p809
F1.0
sS's0R'
p810
F0.1839198153638257
sS'res1'
p811
F1.0
sS'storageR'
p812
F100.0
sS'gz'
p813
g14
sS's0S'
p814
F0.19
sS'k1'
p815
F0.3646603261347541
sS'eta'
p816
F0.9569591143900604
sS'stR'
p817
F0.6418448303030949
sS'stS'
p818
F0.6
sS'alpha'
p819
F0.3701279161510439
sS'nR'
p820
F0.2323529588666488
sS'nS'
p821
F0.4
sS'storageS'
p822
F1.0
sS'vz'
p823
g25
ssa(dp824
I1
(dp825
g3
F0.002136600675210572
sg806
F0.3691729916891364
sg5
F2.3087155774267636
sg807
F50.0
sg808
F1180.4671534922481
sg8
F0.7013366542224808
sg809
F1.0
sg810
F0.11222754346230196
sg811
F1.0
sg812
F100.0
sg813
g14
sg814
F0.19
sg815
F0.3214439027058466
sg816
F0.9224280638887294
sg817
F0.33360801407621454
sg818
F0.6
sg819
F0.5019493066540849
sg820
F0.2740290445766108
sg821
F0.4
sg822
F1.0
sg823
g25
ssa(dp826
I1
(dp827
g3
F0.005673402901294922
sg806
F0.3298392891722948
sg5
F1.93551874022985
sg807
F50.0
sg808
F984.7082538849667
sg8
F0.5995538114961297
sg809
F1.0
sg810
F0.11126163572587307
sg811
F1.0
sg812
F100.0
sg813
g14
sg814
F0.19
sg815
F0.3325268124896824
sg816
F0.9639703966567494
sg817
F0.3984824794584112
sg818
F0.6
sg819
F0.4765213562002512
sg820
F0.1134930255205877
sg821
F0.4
sg822
F1.0
sg823
g25
ssa(dp828
I1
(dp829
g3
F0.009335425845980037
sg806
F0.3977988885547742
sg5
F1.9610084592195212
sg807
F50.0
sg808
F561.3782771628869
sg8
F0.3338513570238403
sg809
F1.0
sg810
F0.2590233581501746
sg811
F1.0
sg812
F100.0
sg813
g14
sg814
F0.19
sg815
F0.3658263057830365
sg816
F0.8853558826277362
sg817
F0.44092657378349753
sg818
F0.6
sg819
F0.5684083577506952
sg820
F0.32152896351585
sg821
F0.4
sg822
F1.0
sg823
g25
ssa(dp830
I1
(dp831
g3
F0.006822202961336215
sg806
F0.3967948093740307
sg5
F2.0205108020188427
sg807
F50.0
sg808
F1042.3079245262484
sg8
F0.5807661944299468
sg809
F1.0
sg810
F0.16158102781741315
sg811
F1.0
sg812
F100.0
sg813
g14
sg814
F0.19
sg815
F0.373189857453053
sg816
F0.9377594309798254
sg817
F0.4254139319926292
sg818
F0.6
sg819
F0.4025846377294925
sg820
F0.21315960162553801
sg821
F0.4
sg822
F1.0
sg823
g25
ssa(dp832
I1
(dp833
g3
F0.0069087640800370945
sg806
F0.3675369863363976
sg5
F2.0515154219974456
sg807
F50.0
sg808
F1000.3127176951004
sg8
F0.46152396526822803
sg809
F1.0
sg810
F0.13995618892737682
sg811
F1.0
sg812
F100.0
sg813
g14
sg814
F0.19
sg815
F0.35905659774642895
sg816
F0.9561093592518546
sg817
F0.23561097863067976
sg818
F0.6
sg819
F0.5649175536911499
sg820
F0.36624290774554275
sg821
F0.4
sg822
F1.0
sg823
g25
ssa(dp834
I1
(dp835
g3
F0.0034450952361033955
sg806
F0.4838742551343151
sg5
F2.1875412658137887
sg807
F50.0
sg808
F1050.245859383892
sg8
F0.5459035866151124
sg809
F1.0
sg810
F0.29473435767369305
sg811
F1.0
sg812
F100.0
sg813
g14
sg814
F0.19
sg815
F0.3814184311513976
sg816
F0.9736298340859195
sg817
F0.37439506120026256
sg818
F0.6
sg819
F0.5930414263162892
sg820
F0.337070146924607
sg821
F0.4
sg822
F1.0
sg823
g25
ssa(dp836
I1
(dp837
g3
F0.002415550618185954
sg806
F0.47520314430285887
sg5
F2.2362363314183775
sg807
F50.0
sg808
F991.7237948221821
sg8
F0.48251773660599084
sg809
F1.0
sg810
F0.05226949024871526
sg811
F1.0
sg812
F100.0
sg813
g14
sg814
F0.19
sg815
F0.3554639718789817
sg816
F0.9785099951253796
sg817
F0.1498065742674106
sg818
F0.6
sg819
F0.42993642529710674
sg820
F0.3482841040925999
sg821
F0.4
sg822
F1.0
sg823
g25
ssa(dp838
I1
(dp839
g3
F0.007719328294296026
sg806
F0.47428567674388544
sg5
F2.1577559477367427
sg807
F50.0
sg808
F1195.5149065674677
sg8
F0.6268745747556324
sg809
F1.0
sg810
F0.3441370454739878
sg811
F1.0
sg812
F100.0
sg813
g14
sg814
F0.19
sg815
F0.34867516450646574
sg816
F0.9678428965421402
sg817
F0.71142884168502
sg818
F0.6
sg819
F0.33388568642088534
sg820
F0.19030165191161144
sg821
F0.4
sg822
F1.0
sg823
g25
ssa(dp840
I1
(dp841
g3
F0.007975740551155366
sg806
F0.4443280168414825
sg5
F1.9473530669205243
sg807
F50.0
sg808
F1078.3840706166998
sg8
F0.7436912786335925
sg809
F1.0
sg810
F0.03899322345268175
sg811
F1.0
sg812
F100.0
sg813
g14
sg814
F0.19
sg815
F0.3706502926507808
sg816
F0.9892707063743442
sg817
F0.3392735560132333
sg818
F0.6
sg819
F0.48542616178628617
sg820
F0.20352533944421944
sg821
F0.4
sg822
F1.0
sg823
g25
ssa(dp842
I1
(dp843
g3
F0.006943529674252482
sS'k12'
p844
F0.3336030639915716
sg5
F1.978072959991458
sS'zrS'
p845
F50.0
sS'zrR'
p846
F894.2654051759168
sg8
F0.6777783654638738
sS'res2'
p847
F1.0
sS's0R'
p848
F0.16716210341794305
sS'res1'
p849
F1.0
sS'storageR'
p850
F100.0
sS'gz'
p851
g14
sS's0S'
p852
F0.19
sS'k1'
p853
F0.3720617613948308
sS'eta'
p854
F0.9681504847365483
sS'stR'
p855
F0.5771977070659403
sS'stS'
p856
F0.6
sS'alpha'
p857
F0.29785690450105456
sS'nR'
p858
F0.30914337777188816
sS'nS'
p859
F0.4
sS'storageS'
p860
F1.0
sS'vz'
p861
g25
ssa(dp862
I1
(dp863
g3
F0.004059931749973423
sg844
F0.3330038705484895
sg5
F2.209085602704648
sg845
F50.0
sg846
F806.095993082736
sg8
F0.6609701058718678
sg847
F1.0
sg848
F0.31509956474981804
sg849
F1.0
sg850
F100.0
sg851
g14
sg852
F0.19
sg853
F0.33343121491553873
sg854
F0.90353258564169
sg855
F0.5924250823822897
sg856
F0.6
sg857
F0.4413849626860611
sg858
F0.28004832773169913
sg859
F0.4
sg860
F1.0
sg861
g25
ssa(dp864
I1
(dp865
g3
F0.0028393182381144318
sg844
F0.3710400869730066
sg5
F2.2763629454194616
sg845
F50.0
sg846
F1045.087514400987
sg8
F0.5448402935988214
sg847
F1.0
sg848
F0.26831336600854566
sg849
F1.0
sg850
F100.0
sg851
g14
sg852
F0.19
sg853
F0.35865517892290655
sg854
F0.824670814977158
sg855
F0.39395455243797994
sg856
F0.6
sg857
F0.5517882700490663
sg858
F0.3330717746993574
sg859
F0.4
sg860
F1.0
sg861
g25
ssa(dp866
I1
(dp867
g3
F0.004668026126835411
sg844
F0.4466992149888148
sg5
F2.387713197712587
sg845
F50.0
sg846
F696.1433564536778
sg8
F0.3976566677188811
sg847
F1.0
sg848
F0.2924313155340132
sg849
F1.0
sg850
F100.0
sg851
g14
sg852
F0.19
sg853
F0.3826156245529139
sg854
F0.9430722719588631
sg855
F0.4105901171885139
sg856
F0.6
sg857
F0.5792180509962328
sg858
F0.35887854516771023
sg859
F0.4
sg860
F1.0
sg861
g25
ssa(dp868
I1
(dp869
g3
F0.008754327864639031
sg844
F0.46298893814362335
sg5
F1.8874292161030795
sg845
F50.0
sg846
F1046.7572502896487
sg8
F0.5387085419450909
sg847
F1.0
sg848
F0.15050641371004245
sg849
F1.0
sg850
F100.0
sg851
g14
sg852
F0.19
sg853
F0.36513643529996365
sg854
F0.7761831102653634
sg855
F0.3769728103432848
sg856
F0.6
sg857
F0.44416190920581716
sg858
F0.26154514958501657
sg859
F0.4
sg860
F1.0
sg861
g25
ssa(dp870
I1
(dp871
g3
F0.007053330644026927
sg844
F0.4868691998459125
sg5
F2.0526432910525774
sg845
F50.0
sg846
F981.117597259858
sg8
F0.2924194431606101
sg847
F1.0
sg848
F0.38459504812389705
sg849
F1.0
sg850
F100.0
sg851
g14
sg852
F0.19
sg853
F0.36533680733479523
sg854
F0.9404227330429167
sg855
F0.7002826163309059
sg856
F0.6
sg857
F0.5498509556252881
sg858
F0.108930108092546
sg859
F0.4
sg860
F1.0
sg861
g25
ssa(dp872
I1
(dp873
g3
F0.0070864631610553005
sg844
F0.4406535618125469
sg5
F1.939350067688675
sg845
F50.0
sg846
F920.2595765454544
sg8
F0.5936260251794552
sg847
F1.0
sg848
F0.30057326359832326
sg849
F1.0
sg850
F100.0
sg851
g14
sg852
F0.19
sg853
F0.3486217723642342
sg854
F0.7655805411980486
sg855
F0.8340688295526443
sg856
F0.6
sg857
F0.3834710660089464
sg858
F0.29733347387751385
sg859
F0.4
sg860
F1.0
sg861
g25
ssa(dp874
I1
(dp875
g3
F0.00959548479119381
sg844
F0.35658324561849747
sg5
F1.8869959665946372
sg845
F50.0
sg846
F752.6561000874016
sg8
F0.36443073503762136
sg847
F1.0
sg848
F0.3719393609432564
sg849
F1.0
sg850
F100.0
sg851
g14
sg852
F0.19
sg853
F0.3487877258023694
sg854
F0.9042607648623411
sg855
F0.5864152009309074
sg856
F0.6
sg857
F0.28318872781862964
sg858
F0.23487052689716148
sg859
F0.4
sg860
F1.0
sg861
g25
ssa(dp876
I1
(dp877
g3
F0.0022670759795939766
sg844
F0.4207039963513688
sg5
F2.417465440763592
sg845
F50.0
sg846
F691.8771618090493
sg8
F0.5775311358673999
sg847
F1.0
sg848
F0.140588708747019
sg849
F1.0
sg850
F100.0
sg851
g14
sg852
F0.19
sg853
F0.3267421357683578
sg854
F0.8387513603906664
sg855
F0.6716047176416359
sg856
F0.6
sg857
F0.3036124496934169
sg858
F0.33414894918569144
sg859
F0.4
sg860
F1.0
sg861
g25
ssa(dp878
I1
(dp879
g3
F0.003972939521941492
sg844
F0.4175883056503189
sg5
F2.0930476835345972
sg845
F50.0
sg846
F1020.3210487529739
sg8
F0.5536230784359727
sg847
F1.0
sg848
F0.05832729938830581
sg849
F1.0
sg850
F100.0
sg851
g14
sg852
F0.19
sg853
F0.35313541412810845
sg854
F0.7262080810318441
sg855
F0.5483737538227577
sg856
F0.6
sg857
F0.3194395703228261
sg858
F0.3397634831258528
sg859
F0.4
sg860
F1.0
sg861
g25
ssa(dp880
I1
(dp881
g3
F0.0059619032824405754
sS'k12'
p882
F0.4648450921513565
sg5
F2.0722765751055747
sS'zrS'
p883
F50.0
sS'zrR'
p884
F1142.9623884790371
sg8
F0.4557241038108043
sS'res2'
p885
F1.0
sS's0R'
p886
F0.20357388875730367
sS'res1'
p887
F1.0
sS'storageR'
p888
F100.0
sS'gz'
p889
g14
sS's0S'
p890
F0.19
sS'k1'
p891
F0.3399234286064402
sS'eta'
p892
F0.9927791612767803
sS'stR'
p893
F0.36067468365197797
sS'stS'
p894
F0.6
sS'alpha'
p895
F0.6030998308936395
sS'nR'
p896
F0.16578801945968988
sS'nS'
p897
F0.4
sS'storageS'
p898
F1.0
sS'vz'
p899
g25
ssa(dp900
I1
(dp901
g3
F0.0018306189811664877
sg882
F0.40510327739929997
sg5
F2.402374176952315
sg883
F50.0
sg884
F603.6956340102843
sg8
F0.5171410881293117
sg885
F1.0
sg886
F0.3348493152148973
sg887
F1.0
sg888
F100.0
sg889
g14
sg890
F0.19
sg891
F0.38117386636611333
sg892
F0.968643777417248
sg893
F0.5486175433490733
sg894
F0.6
sg895
F0.5785452732672378
sg896
F0.23184360798834047
sg897
F0.4
sg898
F1.0
sg899
g25
ssa(dp902
I1
(dp903
g3
F0.0022464844295672134
sg882
F0.33635217492117936
sg5
F2.492894489661543
sg883
F50.0
sg884
F638.8439119410285
sg8
F0.563269708172318
sg885
F1.0
sg886
F0.2451973610858882
sg887
F1.0
sg888
F100.0
sg889
g14
sg890
F0.19
sg891
F0.3744166145821338
sg892
F0.9738158142429527
sg893
F0.6975111747996133
sg894
F0.6
sg895
F0.4473869230941572
sg896
F0.16898360131866402
sg897
F0.4
sg898
F1.0
sg899
g25
ssa(dp904
I1
(dp905
g3
F0.009678986147026157
sg882
F0.3185360183109071
sg5
F1.8202377671129204
sg883
F50.0
sg884
F926.5419259382276
sg8
F0.650197903458047
sg885
F1.0
sg886
F0.2751091938835351
sg887
F1.0
sg888
F100.0
sg889
g14
sg890
F0.19
sg891
F0.2863850027899203
sg892
F0.9645164642753243
sg893
F0.4990069393343235
sg894
F0.6
sg895
F0.34484667526555884
sg896
F0.25465815897709626
sg897
F0.4
sg898
F1.0
sg899
g25
ssa(dp906
I1
(dp907
g3
F0.0036385877539193557
sg882
F0.4885421481179859
sg5
F2.122567393142201
sg883
F50.0
sg884
F703.2507576010971
sg8
F0.47494797247501264
sg885
F1.0
sg886
F0.0637601628255383
sg887
F1.0
sg888
F100.0
sg889
g14
sg890
F0.19
sg891
F0.37357775841861013
sg892
F0.9880135779609691
sg893
F0.713356845418574
sg894
F0.6
sg895
F0.5393661665774392
sg896
F0.07535836678512094
sg897
F0.4
sg898
F1.0
sg899
g25
ssa(dp908
I1
(dp909
g3
F0.004538061041785838
sg882
F0.46350009017386806
sg5
F2.138961744361362
sg883
F50.0
sg884
F1051.5434684209797
sg8
F0.5565083525741782
sg885
F1.0
sg886
F0.017218219974782345
sg887
F1.0
sg888
F100.0
sg889
g14
sg890
F0.19
sg891
F0.3921291493465292
sg892
F0.8933555527132815
sg893
F0.23577558696184486
sg894
F0.6
sg895
F0.3788515949933983
sg896
F0.20014137108640545
sg897
F0.4
sg898
F1.0
sg899
g25
ssa(dp910
I1
(dp911
g3
F0.0028049618183448644
sg882
F0.3993197448342247
sg5
F2.451154767855995
sg883
F50.0
sg884
F996.7391932348323
sg8
F0.6924950518658592
sg885
F1.0
sg886
F0.18244374504664776
sg887
F1.0
sg888
F100.0
sg889
g14
sg890
F0.19
sg891
F0.3374900763489578
sg892
F0.9966361381500413
sg893
F0.827087805484969
sg894
F0.6
sg895
F0.3819909456580318
sg896
F0.1957114646802755
sg897
F0.4
sg898
F1.0
sg899
g25
ssa(dp912
I1
(dp913
g3
F0.0036700481989620486
sg882
F0.47678750134211
sg5
F2.240964335089075
sg883
F50.0
sg884
F645.0549900971953
sg8
F0.250711566955572
sg885
F1.0
sg886
F0.1957500964833724
sg887
F1.0
sg888
F100.0
sg889
g14
sg890
F0.19
sg891
F0.39721829534284425
sg892
F0.881554745212975
sg893
F0.40349790913844374
sg894
F0.6
sg895
F0.4622359111024802
sg896
F0.2243400895159317
sg897
F0.4
sg898
F1.0
sg899
g25
ssa(dp914
I1
(dp915
g3
F0.00543980338172749
sg882
F0.3022374880516341
sg5
F2.2355095491782477
sg883
F50.0
sg884
F549.9200423050836
sg8
F0.16050439851482148
sg885
F1.0
sg886
F0.09223181889050279
sg887
F1.0
sg888
F100.0
sg889
g14
sg890
F0.19
sg891
F0.2994720462781354
sg892
F0.9793964492011176
sg893
F0.49369408090613875
sg894
F0.6
sg895
F0.4072326264863755
sg896
F0.16659494834377897
sg897
F0.4
sg898
F1.0
sg899
g25
ssa(dp916
I1
(dp917
g3
F0.004147113613196614
sg882
F0.4140187684999327
sg5
F2.294956781024742
sg883
F50.0
sg884
F799.8902664799255
sg8
F0.43760458486444376
sg885
F1.0
sg886
F0.18914035054549314
sg887
F1.0
sg888
F100.0
sg889
g14
sg890
F0.19
sg891
F0.3372070517191953
sg892
F0.7418064884720634
sg893
F0.6890607029199384
sg894
F0.6
sg895
F0.5483230224667229
sg896
F0.13213247846699916
sg897
F0.4
sg898
F1.0
sg899
g25
ssa.