(lp0
F0.9492308821143731
aF0.9424608796255513
aF0.9457959595858054
aF0.9412710953551086
aF0.9452624905878322
aF0.9461101351239318
aF0.9478257127809406
aF0.9456154114112982
aF0.9425125466910158
aF0.9455837555013356
aF0.9468895157838664
aF0.9477113199854269
aF0.9454371352467758
aF0.9470601207737941
aF0.9480668902838669
aF0.9455097237355735
aF0.9452366105370992
aF0.9463426981328683
aF0.9464784150387292
aF0.9425446864773297
aF0.9446470482219216
aF0.9458597994049626
aF0.9476334031246836
aF0.9435276117856981
aF0.9442914439423203
aF0.9488533349698837
aF0.943722572270575
aF0.942886978852067
aF0.9464428900079616
aF0.9464672681792232
aF0.9476863020720612
aF0.9465600159754883
aF0.9485306917627234
aF0.9453639333837979
aF0.9446057482363558
aF0.9476404655961203
aF0.9449221400531
aF0.9441267428081633
aF0.9469214656512737
aF0.9419387635691979
aF0.9478499064507865
aF0.9464133385005961
aF0.9473501590388396
aF0.9466660375578962
aF0.9445838895435269
aF0.945005990844377
aF0.9467285696768873
aF0.9472026307587215
aF0.9436495517495617
aF0.9456862861943293
aF0.9498176003075793
aF0.9477211676989117
aF0.9452411657379617
aF0.9484597211229998
aF0.9420837955329415
aF0.9443673716229526
aF0.9450600795934547
aF0.9441142776560338
aF0.9446780170724303
aF0.9485608581546789
aF0.9480131531862184
aF0.9487202449301892
aF0.940442424598756
aF0.9488209717842299
aF0.9490356589775526
aF0.9505140147647844
aF0.944350439144516
aF0.9457901450992658
aF0.94081260032219
aF0.9415291604490723
aF0.9407565808822032
aF0.9454778184241672
aF0.9470887183892579
aF0.9407421815541764
aF0.94280127611193
aF0.947972454671483
aF0.9400834252497156
aF0.9434587997837646
aF0.946917679420943
aF0.9450208975566345
aF0.9452021758598701
aF0.9473244577726604
aF0.9465789560419579
aF0.9452173626893562
aF0.9435009814923286
aF0.9488568745965682
aF0.943637260036451
aF0.9434255900133158
aF0.9435967107913356
aF0.946374158291722
aF0.9483042789170516
aF0.9504633903235706
aF0.9423444164767867
aF0.9456925011711143
aF0.9475785405436621
aF0.9462700390410657
aF0.9394449883558028
aF0.9433273698993951
aF0.9432197864620157
aF0.9445580519628776
aF0.94578401815056
aF0.943354976228689
aF0.9454974820013156
aF0.9432605162895608
aF0.9417225666540221
aF0.9468297555611213
aF0.9483947545111492
aF0.9436368517231071
aF0.9436473500834466
aF0.9434914865449443
aF0.9480643438483087
aF0.9478849655765641
aF0.9444296555125881
aF0.9430511110693085
aF0.9472143989810471
aF0.9421619611284112
aF0.945674753756712
aF0.9411864729632898
aF0.9446798470728011
aF0.9443423750901251
aF0.9439564653336585
aF0.9441523173167301
aF0.94523154988218
aF0.9504551561119595
aF0.9445846214564492
aF0.9457602235221414
aF0.9475128963663967
aF0.9411007575519255
aF0.9437982044509157
aF0.9443658052507493
aF0.9463429190457376
aF0.9463137944102504
aF0.9453464187348338
aF0.9461030277645841
aF0.9470970223161694
aF0.9455646169139112
aF0.9452509836349201
aF0.9435173268270096
aF0.9446927291307405
aF0.9455611280162994
aF0.946527290385144
aF0.9462747079874396
aF0.9463814463983765
aF0.9449461856926592
aF0.9435321844666847
aF0.9456933210979485
aF0.9460626731604628
aF0.9461249405213263
aF0.9477976952113931
aF0.9446332936569753
aF0.9458451459391511
aF0.9474684542461509
aF0.9481733953182496
aF0.9435578692688363
aF0.9449124666858584
aF0.9488042311288921
aF0.9437727916903216
aF0.9450916390150096
aF0.9453556506119946
aF0.947036319936494
aF0.9463075205827387
aF0.9453528875091671
aF0.9493394474858015
aF0.9447028378556724
aF0.9428031850972872
aF0.9431488097615474
aF0.9453219177131851
aF0.9453986060226681
aF0.9504402361505032
aF0.94452043747793
aF0.9468562693020255
aF0.9474931510739384
aF0.9466577310055739
aF0.9451705096341283
aF0.9458604625191097
aF0.9492177419248584
aF0.9449388569943584
aF0.9464013468300138
aF0.9456456432880642
aF0.9451656470446351
aF0.9490532273782909
aF0.946663721230225
aF0.9438824322007198
aF0.9474497186401818
aF0.9449792760729009
aF0.9461131070535698
aF0.9468188795380929
aF0.946008548815895
aF0.9443443702523912
aF0.9449245522469945
aF0.9458635405109985
aF0.9467923527673179
aF0.9454869257241424
aF0.9466836717278421
aF0.9457548938147602
aF0.9478849533399809
aF0.9432870367183329
aF0.9458838321289366
aF0.9448508470320398
aF0.9452942331502234
aF0.944423023371232
aF0.9424470454581629
aF0.9484788427258124
aF0.9483402105577052
aF0.9414090160746589
aF0.9485050770911321
aF0.9426306153601252
aF0.9404055284956552
aF0.9429184995528992
aF0.9389913017363685
aF0.947005110520163
aF0.9451950197026845
aF0.9447844983542968
aF0.9460090139543048
aF0.9477176261118682
aF0.9481832305289469
aF0.9472518977170012
aF0.9439345783998627
aF0.9447868653748063
aF0.944196818830359
aF0.9466636682409177
aF0.9472742749350237
aF0.945019721796671
aF0.940197014751007
aF0.9441439883363312
aF0.946378254614739
aF0.9428587916941069
aF0.937903623978742
aF0.941052533941688
aF0.9407646740832776
aF0.947272415197877
aF0.9492581110542044
aF0.9475678208955788
aF0.940343669560273
aF0.9436409384161529
aF0.9450046725803998
aF0.9470278757653477
aF0.9380939632030496
aF0.9390533833791145
aF0.9369388858678431
a.