(dp0
cnumpy.core.multiarray
scalar
p1
(cnumpy
dtype
p2
(S'i8'
p3
I0
I1
tp4
Rp5
(I3
S'<'
p6
NNNI-1
I-1
I0
tp7
bS'\x01\x00\x00\x00\x00\x00\x00\x00'
p8
tp9
Rp10
(dp11
S'volume'
p12
F1.0
sS'model'
p13
cchannel
NoChannel
p14
ssg1
(g5
S'\x02\x00\x00\x00\x00\x00\x00\x00'
p15
tp16
Rp17
(dp18
g12
F1.0
sg13
g14
ssg1
(g5
S'\x03\x00\x00\x00\x00\x00\x00\x00'
p19
tp20
Rp21
(dp22
g12
F1.0
sg13
g14
ss.