(dp0
cnumpy.core.multiarray
scalar
p1
(cnumpy
dtype
p2
(S'i8'
p3
I0
I1
tp4
Rp5
(I3
S'<'
p6
NNNI-1
I-1
I0
tp7
bS'\x01\x00\x00\x00\x00\x00\x00\x00'
p8
tp9
Rp10
(dp11
S'mannings_n'
p12
F0.1
sS'volume'
p13
I0
sS'model'
p14
cchannel
SimpleChannel
p15
sS'e'
p16
F0.008
sS'f'
p17
F0.39
ssg1
(g5
S'\x02\x00\x00\x00\x00\x00\x00\x00'
p18
tp19
Rp20
(dp21
g12
F0.1
sg13
I0
sg14
g15
sg16
F0.008
sg17
F0.39
ssg1
(g5
S'\x03\x00\x00\x00\x00\x00\x00\x00'
p22
tp23
Rp24
(dp25
g12
F0.1
sg13
I0
sg14
g15
sg16
F0.008
sg17
F0.39
ss.