(dp0
S'resample_freq_hillslope'
p1
S'360T'
p2
sS'dt_hillslope'
p3
F0.25
sS'Tmax'
p4
F2253.0
sS'spinup_date'
p5
cdatetime
date
p6
(S'\x07\xdd\n\x01'
p7
tp8
Rp9
sS'dt_channel'
p10
F0.001388888888888889
sS'dt_temperature'
p11
F0.002777777777777778
sS'stop_date'
p12
g6
(S'\x07\xde\t\x01'
p13
tp14
Rp15
sS'resample_freq_channel'
p16
S'2T'
p17
sS'resample_freq_temperature'
p18
S'4T'
p19
sS'start_date'
p20
g6
(S'\x07\xd8\x07\x01'
p21
tp22
Rp23
s.