(dp0
S'resample_freq_hillslope'
p1
S'180T'
p2
sS'dt_hillslope'
p3
F0.125
sS'Tmax'
p4
F1034.0
sS'spinup_date'
p5
cdatetime
date
p6
(S'\x07\xdf\x0c\x05'
p7
tp8
Rp9
sS'dt_channel'
p10
F0.001388888888888889
sS'dt_temperature'
p11
F0.011111111111111112
sS'stop_date'
p12
g6
(S'\x07\xe0\x04\x1e'
p13
tp14
Rp15
sS'resample_freq_channel'
p16
S'2T'
p17
sS'resample_freq_temperature'
p18
S'16T'
p19
sS'start_date'
p20
g6
(S'\x07\xdd\x07\x01'
p21
tp22
Rp23
s.