(dp0
I2
(dp1
S'storageGZ'
p2
F2.0
sS'gz'
p3
cgroundwaterZone
Melange
p4
sS'storageVZ'
p5
F1.0
sS'vz'
p6
cvadoseZone
PorporatoVadoseZone
p7
sS'sfc'
p8
F0.6
sS'zr'
p9
F30.0
sS'a'
p10
F0.01
sS'b'
p11
F2.0
sS'capacity'
p12
F3.0
sS'sw'
p13
F0.2
sS'n'
p14
F0.3
ss.