(dp0
I1
(dp1
S'a'
p2
F0.002388
sS'k12'
p3
F0.408
sS'b'
p4
F2.239
sS'zrS'
p5
F50.0
sS'zrR'
p6
F692.7
sS'f'
p7
F0.1245
sS'res2'
p8
F1.0
sS's0R'
p9
F0.1016
sS'res1'
p10
F1.0
sS'storageR'
p11
F100.0
sS'gz'
p12
cgroundwaterZone
LinearToNonlinearReservoir
p13
sS's0S'
p14
F0.19
sS'k1'
p15
F0.2618
sS'eta'
p16
F1.0
sS'stR'
p17
F0.23596
sS'stS'
p18
F0.6
sS'alpha'
p19
F0.3819
sS'nR'
p20
F0.3638
sS'nS'
p21
F0.4
sS'storageS'
p22
F1.0
sS'vz'
p23
cvadoseZone
PreferentialRockMoistureZone
p24
ss.