(dp0
I1
(dp1
S'a'
p2
F0.0037
sS'k12'
p3
F0.486
sS'b'
p4
F2.063
sS'zrS'
p5
F75.0
sS'zrR'
p6
F900.7
sS'f'
p7
F0.2
sS'res2'
p8
F1.0
sS's0R'
p9
F0.343
sS'res1'
p10
F1.0
sS'storageR'
p11
F100.0
sS'gz'
p12
cgroundwaterZone
LinearToNonlinearReservoir
p13
sS's0S'
p14
F0.19
sS'k1'
p15
F0.2477
sS'eta'
p16
F1.0
sS'stR'
p17
F0.698
sS'stS'
p18
F0.6
sS'alpha'
p19
F0.12
sS'nR'
p20
F0.073
sS'nS'
p21
F0.4
sS'storageS'
p22
F1.0
sS'vz'
p23
cvadoseZone
PreferentialRockMoistureZone
p24
ssI2
(dp25
S'storageGZ'
p26
F1.0
sS'sstar'
p27
F0.57
sg12
cgroundwaterZone
NonlinearReservoir
p28
sS'storageVZ'
p29
F1.0
sg23
cvadoseZone
MelangeVadoseZone
p30
sS'zr'
p31
F100.0
sg2
F0.7
sg3
F0.123
sg4
F1.2
sS's1'
p32
F0.65
sS'n'
p33
F0.45
sg15
F8.0
sg16
F0.55
ss.