(dp0
I2
(dp1
S'storageGZ'
p2
F1.0
sS'sstar'
p3
F0.2
sS'gz'
p4
cgroundwaterZone
NonlinearReservoir
p5
sS'storageVZ'
p6
F1.0
sS'vz'
p7
cvadoseZone
MelangeVadoseZone
p8
sS'zr'
p9
F21.6
sS'a'
p10
F0.085
sS'k12'
p11
F0.5
sS'b'
p12
F3.5
sS's1'
p13
F0.5
sS'n'
p14
F0.24
sS'k1'
p15
F3.0
sS'eta'
p16
F1.0
ss.