(dp0
I2
(dp1
S'storageGZ'
p2
F1.0
sS'res2'
p3
F1.0
sS'res1'
p4
F1.0
sS'gz'
p5
cgroundwaterZone
Melange
p6
sS'storageVZ'
p7
F1.0
sS'vz'
p8
cvadoseZone
PorporatoVadoseZone
p9
sS'sfc'
p10
F0.306
sS'zr'
p11
F43.128
sS'a'
p12
F0.098
sS'k12'
p13
F0.8866
sS'b'
p14
F3.73
sS'capacity'
p15
F4.7
sS'sw'
p16
F0.288
sS'n'
p17
F0.311
sS'k1'
p18
F3.78
ss.