(dp0
I1
(dp1
S'a'
p2
(F0.0005
F0.01
tp3
sS'k12'
p4
(F0.3
F0.5
tp5
sS'k1'
p6
(F0.2
F0.4
tp7
sS'b'
p8
(F1.8
F2.5
tp9
sS'zrR'
p10
(F500.0
F1200.0
tp11
sS'stR'
p12
(F0.1
F0.9
tp13
sS'f'
p14
(F0.1
F0.9
tp15
sS'nR'
p16
(F0.01
F0.4
tp17
sS's0R'
p18
(I0
F0.4
tp19
ss.