(dp0
I1
(dp1
S'zrS'
p2
(F10.0
F100.0
tp3
sS'zrR'
p4
(F500.0
F1200.0
tp5
sS'stR'
p6
(F0.1
F0.9
tp7
sS'stS'
p8
(F0.3
F0.8
tp9
sS'alpha'
p10
(F0.05
F0.95
tp11
sS'nR'
p12
(F0.01
F0.4
tp13
sS'nS'
p14
(F0.2
F0.4
tp15
sS'a'
p16
(F0.0005
F0.01
tp17
sS'k12'
p18
(F0.3
F0.5
tp19
sS'b'
p20
(F1.8
F2.5
tp21
sS'f'
p22
(F0.1
F0.9
tp23
sS's0R'
p24
(I0
F0.4
tp25
sS's0S'
p26
(F0.1
F0.4
tp27
sS'k1'
p28
(F0.2
F0.4
tp29
ss.