(dp0
I1
(dp1
S'zrS'
p2
F100.36
sS'zrR'
p3
F1000.1
sS'emax'
p4
F0.5
sS'gz'
p5
cgroundwaterZone
LinearToNonlinearReservoir
p6
sS'storageS'
p7
F0.0
sS'ET'
p8
I0
sS'nR'
p9
F0.051053100177366355
sS'storageR'
p10
F0.0
sS'leakage'
p11
I0
sS'k12'
p12
F0.4787887808001386
sS'nS'
p13
F0.4482791871968346
sS'k1'
p14
F0.425
sS'stR'
p15
F0.738
sS'storageGZ'
p16
F0.0
sS'res2'
p17
F1.0
sS'res1'
p18
F1.0
sS'storageVZ'
p19
I0
sS'stS'
p20
F0.643
sS'discharge'
p21
I0
sS'sfc'
p22
F0.51
sS'a'
p23
F0.0256
sS'b'
p24
F1.659
sS'f'
p25
F0.632
sS's0R'
p26
F0.0077
sS's0S'
p27
F0.3499
sS'vz'
p28
cvadoseZone
SimpleRockMoistureZone
p29
ss.