(dp0
I1
(dp1
S'a'
p2
F0.00277
sS'k12'
p3
F0.4458
sS'b'
p4
F2.167
sS'zrS'
p5
F50.0
sS'zrR'
p6
F1000.1
sS'f'
p7
F0.559
sS'res2'
p8
F1.0
sS's0R'
p9
F0.0708
sS'res1'
p10
F1.0
sS'storageR'
p11
F100.0
sS'gz'
p12
cgroundwaterZone
LinearToNonlinearReservoir
p13
sS's0S'
p14
F0.24
sS'k1'
p15
F0.2429
sS'stR'
p16
F0.446
sS'stS'
p17
F0.65
sS'alpha'
p18
F0.1431
sS'nR'
p19
F0.24
sS'nS'
p20
F0.45
sS'storageS'
p21
F1.0
sS'vz'
p22
cvadoseZone
PreferentialRockMoistureZone
p23
ssI2
(dp24
S'storageGZ'
p25
F1.0
sg12
cgroundwaterZone
Melange
p26
sS'storageVZ'
p27
F1.0
sg22
cvadoseZone
PorporatoVadoseZone
p28
sS'sfc'
p29
F0.44
sS'zr'
p30
F31.0
sg2
F0.006
sg4
F2.15
sS'capacity'
p31
F10.2
sS'sw'
p32
F0.18
sS'n'
p33
F0.38
ss.