(dp0
I1
(dp1
S'a'
p2
(F0.001
F0.008
tp3
sS'k12'
p4
(F0.3
F0.5
tp5
sS'k1'
p6
(F0.2
F0.4
tp7
sS'b'
p8
(F2.0
F2.3
tp9
sS'zrR'
p10
(F400.0
F1000.0
tp11
sS'stR'
p12
(F0.1
F0.9
tp13
sS'f'
p14
(F0.1
F0.9
tp15
sS'alpha'
p16
(F0.05
F0.95
tp17
sS'nR'
p18
(F0.05
F0.4
tp19
sS's0R'
p20
(I0
F0.4
tp21
ss.