(dp0
I1
(dp1
S'zrS'
p2
F75.0
sS'zrR'
p3
F1073.7
sS'gz'
p4
cgroundwaterZone
NonlinearReservoir
p5
sS'nR'
p6
F0.2654095712914742
sS'storageR'
p7
F100.0
sS'storageS'
p8
F1.0
sS'k12'
p9
F0.408
sS'nS'
p10
F0.4
sS'k1'
p11
F0.2618
sS'storageGZ'
p12
F2.0
sS'res2'
p13
F1.0
sS'res1'
p14
F1.0
sS'stR'
p15
F0.3114770363809568
sS'stS'
p16
F0.6
sS'alpha'
p17
F0.8081806051749173
sS'a'
p18
F0.001340226931339227
sS'b'
p19
F2.483405091817454
sS'f'
p20
F0.10237419461065862
sS's0R'
p21
F0.12248601
sS's0S'
p22
F0.19
sS'eta'
p23
F1.0
sS'vz'
p24
cvadoseZone
PreferentialRockMoistureZone
p25
ss.