(dp0
I1
(dp1
S'emax'
p2
F0.5
sS'gz'
p3
cgroundwaterZone
LinearToNonlinearReservoir
p4
sS'discharge'
p5
I0
sS'storageS'
p6
F0.0
sS'storageR'
p7
F0.0
sS'leakage'
p8
I0
sS'k12'
p9
F0.4943673250769943
sS'sh2'
p10
F0.1666079566278251
sS'sfc2'
p11
F0.702378309458718
sS'sfc1'
p12
F0.8619626033659412
sS'k1'
p13
F0.4710700286889746
sS'storageGZ'
p14
F5.0
sS'Ks1'
p15
F65.61540297456219
sS'Zr2'
p16
F818.2544760694539
sS'Zr1'
p17
F169.35236834999844
sS'Ks2'
p18
F59.52779856810265
sS'res2'
p19
F1.0
sS'res1'
p20
F1.0
sS'storageVZ'
p21
I0
sS'alpha'
p22
F0.7880309629740647
sS'a'
p23
F0.013323166787737175
sS'b'
p24
F1.6705501581180178
sS'f'
p25
F0.8962038022824387
sS'qSlim'
p26
F38.60640858249493
sS'n1'
p27
F0.6363088514735844
sS'n2'
p28
F0.09878190604933881
sS'vz'
p29
cvadoseZone
NimmoRockMoistureZone
p30
sS'sh1'
p31
F0.09679077357740416
ss.