(dp0
I1
(dp1
S'stR'
p2
(F0.1
F0.9
tp3
sS'stS'
p4
(F0.1
F0.9
tp5
sS'alpha'
p6
(F0.05
F0.5
tp7
sS'nR'
p8
(F0.01
F0.2
tp9
sS'nS'
p10
(F0.3
F0.7
tp11
sS'a'
p12
(F0.0001
F0.1
tp13
sS'k12'
p14
(F0.05
F0.5
tp15
sS'b'
p16
(F1.5
F2.5
tp17
sS'f'
p18
(F0.1
F0.9
tp19
sS's0R'
p20
(I0
F0.4
tp21
sS's0S'
p22
(I0
F0.4
tp23
sS'k1'
p24
(F0.05
F0.5
tp25
ss.