(dp0
I2
(dp1
S'storageGZ'
p2
F1.0
sS'sstar'
p3
F0.57
sS'gz'
p4
cgroundwaterZone
NonlinearReservoir
p5
sS'storageVZ'
p6
F1.0
sS'vz'
p7
cvadoseZone
MelangeVadoseZone
p8
sS'zr'
p9
F100.0
sS'a'
p10
F0.8
sS'k12'
p11
F0.24
sS'b'
p12
F1.6
sS's1'
p13
F0.65
sS'n'
p14
F0.45
sS'k1'
p15
F6.0
sS'eta'
p16
F0.99
ss.