(dp0
I1
(dp1
S'a'
p2
F0.001540226931339227
sS'storageGZ'
p3
F2.0
sS'res1'
p4
F1.0
sS'k12'
p5
F0.408
sS'res2'
p6
F1.0
sS's0'
p7
F0.2
sS'gz'
p8
cgroundwaterZone
NonlinearReservoir
p9
sS'st'
p10
F0.6
sS'k1'
p11
F0.2618
sS'eta'
p12
F1.0
sS'storageVZ'
p13
F1.0
sS'alpha'
p14
F0.9
sS'vz'
p15
cvadoseZone
PorporatoPreferentialVadoseZone
p16
sS'n'
p17
F0.2
sS'b'
p18
F2.323405091817454
sS'zr'
p19
F1000.0
ss.