(dp0
I1
(dp1
S'a'
p2
F0.001350959656213178
sS'storageGZ'
p3
F2.0
sS'res1'
p4
F1.0
sS'k12'
p5
F0.3505204
sS'res2'
p6
F1.0
sS's0'
p7
F0.353736
sS'gz'
p8
cgroundwaterZone
LinearToNonlinearReservoir
p9
sS'st'
p10
F0.488581441
sS'k1'
p11
F0.284870263
sS'eta'
p12
F1.0
sS'storageVZ'
p13
F1.0
sS'alpha'
p14
F0.2992
sS'vz'
p15
cvadoseZone
PorporatoVadoseZone
p16
sS'n'
p17
F0.3365
sS'b'
p18
F2.2142640899277124
sS'zr'
p19
F677.02913
ss.