(dp0
I1
(dp1
S'a'
p2
F0.00372
sS'k12'
p3
F0.486
sS'b'
p4
F2.064
sS'zrS'
p5
F75.0
sS'zrR'
p6
F869.07
sS'f'
p7
F0.798
sS'res2'
p8
F1.0
sS's0R'
p9
F0.343
sS'res1'
p10
F1.0
sS'storageR'
p11
F100.0
sS'gz'
p12
cgroundwaterZone
LinearToNonlinearReservoir
p13
sS's0S'
p14
F0.19
sS'k1'
p15
F0.2477
sS'stR'
p16
F0.698
sS'stS'
p17
F0.6
sS'alpha'
p18
F0.119
sS'nR'
p19
F0.073
sS'nS'
p20
F0.4
sS'storageS'
p21
F1.0
sS'vz'
p22
cvadoseZone
PreferentialRockMoistureZone
p23
ssI2
(dp24
S'storageGZ'
p25
F1.0
sS'capacity'
p26
F3.71
sS'storageVZ'
p27
F1.0
sS'k'
p28
F0.2
sg22
cvadoseZone
PorporatoVadoseZone
p29
sS'n'
p30
F0.38
sS'sw'
p31
F0.2428
sg12
cgroundwaterZone
LinearMelange
p32
sS'zr'
p33
F60.89
sS'sfc'
p34
F0.48
ss.