(dp0
I1
(dp1
sI2
(dp2
S'a'
p3
(F0.001
F1.0
tp4
sS'k12'
p5
(F0.1
F0.5
tp6
sS'k1'
p7
(F0.2
F0.8
tp8
sS'b'
p9
(F1.5
F2.5
tp10
sS'capacity'
p11
(F1.0
F5.0
tp12
sS'sw'
p13
(F0.05
F0.3
tp14
sS'sfc'
p15
(F0.3
F0.8
tp16
sS'zr'
p17
(F10.0
F100.0
tp18
sS'n'
p19
(F0.1
F0.5
tp20
ss.