(dp0
I2
(dp1
S'a'
p2
(F0.1
F0.001
tp3
sS'b'
p4
(F1.5
F2.5
tp5
sS'capacity'
p6
(F1.0
F10.0
tp7
sS'sw'
p8
(F0.1
F0.3
tp9
sS'n'
p10
(F0.2
F0.5
tp11
sS'sfc'
p12
(F0.3
F0.65
tp13
sS'zr'
p14
(F5.0
F50.0
tp15
ss.