(dp0
I2
(dp1
S'a'
p2
(F0.1
F0.001
tp3
sS'k12'
p4
(F0.5
F2.0
tp5
sS'k1'
p6
(F0.5
F2.0
tp7
sS'b'
p8
(F1.0
F2.5
tp9
sS'capacity'
p10
(F1.0
F10.0
tp11
sS'sw'
p12
(F0.1
F0.3
tp13
sS'sfc'
p14
(F0.3
F0.65
tp15
sS'zr'
p16
(F5.0
F50.0
tp17
sS'n'
p18
(F0.1
F0.5
tp19
ss.