(dp0
I2
(dp1
S'storageGZ'
p2
F1.0
sS'res2'
p3
F1.0
sS'res1'
p4
F1.0
sS'gz'
p5
cgroundwaterZone
Melange
p6
sS'storageVZ'
p7
F1.0
sS'vz'
p8
cvadoseZone
PorporatoVadoseZone
p9
sS'sfc'
p10
F0.63
sS'zr'
p11
F18.58
sS'a'
p12
F0.09
sS'k12'
p13
F0.13
sS'b'
p14
F3.88
sS'capacity'
p15
F2.0
sS'sw'
p16
F0.2
sS'n'
p17
F0.4
sS'k1'
p18
F3.3
ss.