(dp0
I1
(dp1
S'zrS'
p2
F100.36
sS'zrR'
p3
F1000.1
sS'emax'
p4
F0.5
sS'gz'
p5
cgroundwaterZone
LinearToNonlinearReservoir
p6
sS'storageS'
p7
F0.0
sS'alpha'
p8
F0.1
sS'ET'
p9
I0
sS'nR'
p10
F0.181
sS'storageR'
p11
F0.0
sS'leakage'
p12
I0
sS'k12'
p13
F0.4637
sS'nS'
p14
F0.4626
sS'k1'
p15
F0.3419
sS'stR'
p16
F0.2898
sS'storageGZ'
p17
F0.0
sS'res2'
p18
F1.0
sS'res1'
p19
F1.0
sS'storageVZ'
p20
I0
sS'stS'
p21
F0.8845
sS'discharge'
p22
I0
sS'sfc'
p23
F0.51
sS'a'
p24
F0.002778
sS'b'
p25
F2.35
sS'f'
p26
F0.481
sS's0R'
p27
F0.1747
sS's0S'
p28
F0.3612
sS'vz'
p29
cvadoseZone
PreferentialRockMoistureZone
p30
ss.