(dp0
I1
(dp1
S'a'
p2
(F0.0001
F0.1
tp3
sS'k12'
p4
(F0.05
F0.5
tp5
sS'sh2'
p6
(I0
F0.4
tp7
sS'b'
p8
(F1.5
F2.5
tp9
sS'Ks1'
p10
(F10.0
F200.0
tp11
sS'Zr2'
p12
(F200.0
F2000.0
tp13
sS'Zr1'
p14
(F20.0
F200.0
tp15
sS'Ks2'
p16
(F10.0
F100.0
tp17
sS'sh1'
p18
(I0
F0.4
tp19
sS'f'
p20
(F0.1
F0.9
tp21
sS'sfc2'
p22
(F0.1
F0.9
tp23
sS'qSlim'
p24
(F1.0
F50.0
tp25
sS'k1'
p26
(F0.05
F0.8
tp27
sS'n1'
p28
(F0.3
F0.7
tp29
sS'alpha'
p30
(F0.2
F0.8
tp31
sS'n2'
p32
(F0.01
F0.2
tp33
sS'sfc1'
p34
(F0.1
F0.9
tp35
ss.