(dp0
I1
(dp1
S'stR'
p2
(F0.1
F0.9
tp3
sS'stS'
p4
(F0.1
F0.9
tp5
sS'nR'
p6
(F0.01
F0.2
tp7
sS'nS'
p8
(F0.3
F0.7
tp9
sS'a'
p10
(F0.0001
F0.1
tp11
sS'k12'
p12
(F0.05
F0.5
tp13
sS'b'
p14
(F1.5
F2.5
tp15
sS'f'
p16
(F0.1
F0.9
tp17
sS's0R'
p18
(I0
F0.4
tp19
sS's0S'
p20
(I0
F0.4
tp21
sS'k1'
p22
(F0.05
F0.5
tp23
ss.