(dp0
I1
(dp1
S'a'
p2
F0.0037
sS'k12'
p3
F0.486
sS'b'
p4
F2.063
sS'zrS'
p5
F75.0
sS'zrR'
p6
F869.7
sS'f'
p7
F0.798
sS'res2'
p8
F1.0
sS's0R'
p9
F0.343
sS'res1'
p10
F1.0
sS'storageR'
p11
F100.0
sS'gz'
p12
cgroundwaterZone
LinearToNonlinearReservoir
p13
sS's0S'
p14
F0.19
sS'k1'
p15
F0.2477
sS'stR'
p16
F0.698
sS'stS'
p17
F0.6
sS'alpha'
p18
F0.119
sS'nR'
p19
F0.073
sS'nS'
p20
F0.4
sS'storageS'
p21
F1.0
sS'vz'
p22
cvadoseZone
PreferentialRockMoistureZone
p23
ss.