(dp0
I2
(dp1
S'res2'
p2
F1.0
sS'res1'
p3
F1.0
sS'gz'
p4
cgroundwaterZone
LinearToNonlinearReservoir
p5
sS'storageVZ'
p6
F1.0
sS'alpha'
p7
F0.8
sS'vz'
p8
cvadoseZone
PorporatoPreferentialVadoseZone
p9
sS'st'
p10
F0.65
sS'zr'
p11
F100.0
sS'a'
p12
F0.01
sS'k12'
p13
F0.408
sS'b'
p14
F2.5
sS's0'
p15
F0.2
sS'n'
p16
F0.45
sS'k1'
p17
F2.0
sS'eta'
p18
F0.99
ss.