(dp0
I1
(dp1
S'a'
p2
F0.001697226931339227
sS'storageGZ'
p3
F2.0
sS'res1'
p4
F1.0
sS'k12'
p5
F0.625
sS'res2'
p6
F1.0
sS's0'
p7
F0.24
sS'gz'
p8
cgroundwaterZone
LinearToNonlinearReservoir
p9
sS'st'
p10
F0.508
sS'k1'
p11
F0.8176
sS'eta'
p12
F1.0
sS'storageVZ'
p13
F1.0
sS'alpha'
p14
F0.717
sS'vz'
p15
cvadoseZone
PorporatoPreferentialVadoseZone
p16
sS'n'
p17
F0.23
sS'b'
p18
F2.323405091817454
sS'zr'
p19
F624.0
ss.