(dp0
I1
(dp1
S'a'
p2
F0.00298
sS'k12'
p3
F0.498
sS'b'
p4
F2.167
sS'zrS'
p5
F100.0
sS'zrR'
p6
F827.8
sS'f'
p7
F0.793
sS'res2'
p8
F1.0
sS's0R'
p9
F0.0128
sS'res1'
p10
F1.0
sS'storageR'
p11
F100.0
sS'gz'
p12
cgroundwaterZone
LinearToNonlinearReservoir
p13
sS's0S'
p14
F0.19
sS'k1'
p15
F0.209
sS'stR'
p16
F0.141
sS'stS'
p17
F0.65
sS'alpha'
p18
F0.72
sS'nR'
p19
F0.1139
sS'nS'
p20
F0.45
sS'storageS'
p21
F1.0
sS'vz'
p22
cvadoseZone
PreferentialRockMoistureZone
p23
ss.