(dp0
I1
(dp1
sI2
(dp2
S'a'
p3
(F0.1
F0.001
tp4
sS'b'
p5
(F1.5
F2.5
tp6
sS'capacity'
p7
(F1.0
F30.0
tp8
sS'sw'
p9
(F0.05
F0.3
tp10
sS'n'
p11
(F0.1
F0.5
tp12
sS'sfc'
p13
(F0.3
F0.8
tp14
sS'zr'
p15
(F10.0
F100.0
tp16
ss.