(dp0
I2
(dp1
S'res2'
p2
F1.0
sS'res1'
p3
F1.0
sS'gz'
p4
cgroundwaterZone
LinearToNonlinearMelange
p5
sS'storageVZ'
p6
F1.0
sS'vz'
p7
cvadoseZone
PorporatoVadoseZone
p8
sS'sfc'
p9
F0.52
sS'zr'
p10
F12.28
sS'a'
p11
F0.09
sS'k12'
p12
F0.51
sS'b'
p13
F2.05
sS'capacity'
p14
F6.0
sS'sw'
p15
F0.264
sS'n'
p16
F0.102
sS'k1'
p17
F1.99
ss.