(dp0
cnumpy.core.multiarray
scalar
p1
(cnumpy
dtype
p2
(S'i8'
p3
I0
I1
tp4
Rp5
(I3
S'<'
p6
NNNI-1
I-1
I0
tp7
bS'\x01\x00\x00\x00\x00\x00\x00\x00'
p8
tp9
Rp10
(dp11
S'prev_str01'
p12
I0
sS'prev_str02'
p13
I0
sS'elevation'
p14
I917
sS'gradient'
p15
F0.111499
sS'upstream_area'
p16
F50775000000.0
sS'flow_accum'
p17
F1923.17981
sS'area_sqcm'
p18
F50775000000.0
sS'parameter_group'
p19
I1
sS'shreve'
p20
I1
sS'area_sqkm'
p21
F5.0775
sS'length'
p22
F240208.1528
sS'elev_drop'
p23
F26783.0019
sS'interception_factor'
p24
F0.2
sS'group'
p25
(g1
(g5
S'\x01\x00\x00\x00\x00\x00\x00\x00'
p26
tp27
Rp28
g1
(g5
S'\x00\x00\x00\x00\x00\x00\x00\x00'
p29
tp30
Rp31
tp32
sS'strahler'
p33
I1
sS'climate_group'
p34
I0
sS'next_stream'
p35
I3
sS'out_dist'
p36
F688553.3906
ssg1
(g5
S'\x02\x00\x00\x00\x00\x00\x00\x00'
p37
tp38
Rp39
(dp40
g12
I0
sg13
I0
sg14
I980
sg15
F0.162964
sg16
F36875000000.0
sg17
F1369.265685
sg18
F36875000000.0
sg19
I1
sg20
I1
sg21
F3.6875
sg22
F93284.27119999999
sg23
F15201.9856
sg24
F0.2
sg25
(g1
(g5
S'\x01\x00\x00\x00\x00\x00\x00\x00'
p41
tp42
Rp43
g1
(g5
S'\x01\x00\x00\x00\x00\x00\x00\x00'
p44
tp45
Rp46
tp47
sg33
I1
sg34
I1
sg35
I3
sg36
F541629.509
ssg1
(g5
S'\x03\x00\x00\x00\x00\x00\x00\x00'
p48
tp49
Rp50
(dp51
g12
I1
sg13
I2
sg14
I622
sg15
F0.035517
sg16
F173525000000.0
sg17
F6431.0630200000005
sg18
F85875000000.0
sg19
I1
sg20
I2
sg21
F8.5875
sg22
F448345.2378
sg23
F15923.6572
sg24
F0.2
sg25
(g1
(g5
S'\x01\x00\x00\x00\x00\x00\x00\x00'
p52
tp53
Rp54
g1
(g5
S'\x02\x00\x00\x00\x00\x00\x00\x00'
p55
tp56
Rp57
tp58
sg33
I2
sg34
I2
sg35
I-1
sg36
F448345.2378
ss.