(dp0
cnumpy.core.multiarray
scalar
p1
(cnumpy
dtype
p2
(S'i8'
p3
I0
I1
tp4
Rp5
(I3
S'<'
p6
NNNI-1
I-1
I0
tp7
bS'\x01\x00\x00\x00\x00\x00\x00\x00'
p8
tp9
Rp10
(dp11
S'prev_str01'
p12
I0
sS'prev_str02'
p13
I0
sS'elevation'
p14
I702
sS'gradient'
p15
F0.037519
sS'upstream_area'
p16
F24869920000.0
sS'flow_accum'
p17
F846.7210259999999
sS'area_sqcm'
p18
F24869920000.0
sS'parameter_group'
p19
I2
sS'shreve'
p20
I1
sS'area_sqkm'
p21
F2.486992
sS'length'
p22
F312433.46660000004
sS'elev_drop'
p23
F11722.106000000002
sS'interception_factor'
p24
F0.1
sS'strahler'
p25
I1
sS'climate_group'
p26
F1.0
sS'next_stream'
p27
I3
sS'group'
p28
(g1
(g5
S'\x02\x00\x00\x00\x00\x00\x00\x00'
p29
tp30
Rp31
g1
(g2
(S'f8'
p32
I0
I1
tp33
Rp34
(I3
S'<'
p35
NNNI-1
I-1
I0
tp36
bS'\x00\x00\x00\x00\x00\x00\xf0?'
p37
tp38
Rp39
tp40
sS'out_dist'
p41
F387811.96219999995
ssg1
(g5
S'\x02\x00\x00\x00\x00\x00\x00\x00'
p42
tp43
Rp44
(dp45
g12
I0
sg13
I0
sg14
I700
sg15
F0.074112
sg16
F5704570000.0
sg17
F157.189189
sg18
F5704570000.0
sg19
I2
sg20
I1
sg21
F0.570457
sg22
F88676.0214
sg23
F6571.916
sg24
F0.1
sg25
I1
sg26
F1.0
sg27
I3
sg28
(g1
(g5
S'\x02\x00\x00\x00\x00\x00\x00\x00'
p46
tp47
Rp48
g1
(g34
S'\x00\x00\x00\x00\x00\x00\xf0?'
p49
tp50
Rp51
tp52
sg41
F164054.5171
ssg1
(g5
S'\x03\x00\x00\x00\x00\x00\x00\x00'
p53
tp54
Rp55
(dp56
g12
I1
sg13
I2
sg14
I644
sg15
F0.042526
sg16
F34227420000.0
sg17
F1128.574475
sg18
F3652930000.0
sg19
I2
sg20
I2
sg21
F0.365293
sg22
F75378.49570000001
sg23
F3205.554
sg24
F0.1
sg25
I2
sg26
F1.0
sg27
I-1
sg28
(g1
(g5
S'\x02\x00\x00\x00\x00\x00\x00\x00'
p57
tp58
Rp59
g1
(g34
S'\x00\x00\x00\x00\x00\x00\xf0?'
p60
tp61
Rp62
tp63
sg41
F75378.49570000001
ss.