(dp0
cnumpy.core.multiarray
scalar
p1
(cnumpy
dtype
p2
(S'i8'
p3
I0
I1
tp4
Rp5
(I3
S'<'
p6
NNNI-1
I-1
I0
tp7
bS'\x01\x00\x00\x00\x00\x00\x00\x00'
p8
tp9
Rp10
(dp11
S'prev_str01'
p12
I0
sS'prev_str02'
p13
I0
sS'elevation'
p14
I778
sS'gradient'
p15
F0.029225
sS'upstream_area'
p16
F395375000000.0
sS'flow_accum'
p17
F15388.01614
sS'area_sqcm'
p18
F395375000000.0
sS'parameter_group'
p19
I1
sS'shreve'
p20
I1
sS'area_sqkm'
p21
F39.5375
sS'length'
p22
F1247106.7812
sS'elev_drop'
p23
F36447.057
sS'interception_factor'
p24
F0.1
sS'group'
p25
(g1
(g5
S'\x01\x00\x00\x00\x00\x00\x00\x00'
p26
tp27
Rp28
g1
(g5
S'\x01\x00\x00\x00\x00\x00\x00\x00'
p29
tp30
Rp31
tp32
sS'strahler'
p33
I1
sS'climate_group'
p34
I1
sS'next_stream'
p35
I32
sS'out_dist'
p36
F1969655.1211
ssg1
(g5
S'\x02\x00\x00\x00\x00\x00\x00\x00'
p37
tp38
Rp39
(dp40
g12
I0
sg13
I0
sg14
I623
sg15
F0.006887000000000001
sg16
F397425000000.0
sg17
F15426.618207
sg18
F397425000000.0
sg19
I1
sg20
I1
sg21
F39.7425
sg22
F972045.8145999999
sg23
F6694.880000000001
sg24
F0.1
sg25
(g1
(g5
S'\x01\x00\x00\x00\x00\x00\x00\x00'
p41
tp42
Rp43
g1
(g5
S'\x02\x00\x00\x00\x00\x00\x00\x00'
p44
tp45
Rp46
tp47
sg33
I1
sg34
I2
sg35
I12
sg36
F5954406.922200001
ssg1
(g5
S'\x03\x00\x00\x00\x00\x00\x00\x00'
p48
tp49
Rp50
(dp51
g12
I0
sg13
I0
sg14
I597
sg15
F0.010995999999999999
sg16
F145850000000.0
sg17
F5743.619587
sg18
F145850000000.0
sg19
I2
sg20
I1
sg21
F14.585
sg22
F412487.37340000004
sg23
F4535.648
sg24
F0.1
sg25
(g1
(g5
S'\x02\x00\x00\x00\x00\x00\x00\x00'
p52
tp53
Rp54
g1
(g5
S'\x03\x00\x00\x00\x00\x00\x00\x00'
p55
tp56
Rp57
tp58
sg33
I1
sg34
I3
sg35
I9
sg36
F5583132.7522
ssg1
(g5
S'\x04\x00\x00\x00\x00\x00\x00\x00'
p59
tp60
Rp61
(dp62
g12
I0
sg13
I0
sg14
I661
sg15
F0.032369
sg16
F168950000000.0
sg17
F6749.92982
sg18
F168950000000.0
sg19
I1
sg20
I1
sg21
F16.895
sg22
F375060.9665
sg23
F12140.524
sg24
F0.1
sg25
(g1
(g5
S'\x01\x00\x00\x00\x00\x00\x00\x00'
p63
tp64
Rp65
g1
(g5
S'\x04\x00\x00\x00\x00\x00\x00\x00'
p66
tp67
Rp68
tp69
sg33
I1
sg34
I4
sg35
I22
sg36
F3824249.2757
ssg1
(g5
S'\x05\x00\x00\x00\x00\x00\x00\x00'
p70
tp71
Rp72
(dp73
g12
I0
sg13
I0
sg14
I688
sg15
F0.015332
sg16
F132500000000.0
sg17
F5311.5638
sg18
F132500000000.0
sg19
I1
sg20
I1
sg21
F13.25
sg22
F204350.2884
sg23
F3133.032
sg24
F0.1
sg25
(g1
(g5
S'\x01\x00\x00\x00\x00\x00\x00\x00'
p74
tp75
Rp76
g1
(g5
S'\x05\x00\x00\x00\x00\x00\x00\x00'
p77
tp78
Rp79
tp80
sg33
I1
sg34
I5
sg35
I12
sg36
F5186711.396000001
ssg1
(g5
S'\x06\x00\x00\x00\x00\x00\x00\x00'
p81
tp82
Rp83
(dp84
g12
I0
sg13
I0
sg14
I544
sg15
F0.004081
sg16
F256625000000.0
sg17
F9875.091083
sg18
F256625000000.0
sg19
I2
sg20
I1
sg21
F25.6625
sg22
F496629.50899999996
sg23
F2026.5320000000002
sg24
F0.1
sg25
(g1
(g5
S'\x02\x00\x00\x00\x00\x00\x00\x00'
p85
tp86
Rp87
g1
(g5
S'\x06\x00\x00\x00\x00\x00\x00\x00'
p88
tp89
Rp90
tp91
sg33
I1
sg34
I6
sg35
I9
sg36
F5667274.8878999995
ssg1
(g5
S'\x07\x00\x00\x00\x00\x00\x00\x00'
p92
tp93
Rp94
(dp95
g12
I0
sg13
I0
sg14
I641
sg15
F0.011705
sg16
F123875000000.0
sg17
F4963.470874000001
sg18
F123875000000.0
sg19
I1
sg20
I1
sg21
F12.3875
sg22
F151923.8816
sg23
F1778.3260000000002
sg24
F0.1
sg25
(g1
(g5
S'\x01\x00\x00\x00\x00\x00\x00\x00'
p96
tp97
Rp98
g1
(g5
S'\x07\x00\x00\x00\x00\x00\x00\x00'
p99
tp100
Rp101
tp102
sg33
I1
sg34
I7
sg35
I11
sg36
F5067863.6329
ssg1
(g5
S'\x08\x00\x00\x00\x00\x00\x00\x00'
p103
tp104
Rp105
(dp106
g12
I0
sg13
I0
sg14
I586
sg15
F0.018916
sg16
F125350000000.0
sg17
F5018.548226
sg18
F125350000000.0
sg19
I2
sg20
I1
sg21
F12.535
sg22
F298847.7631
sg23
F5653.058000000001
sg24
F0.1
sg25
(g1
(g5
S'\x02\x00\x00\x00\x00\x00\x00\x00'
p107
tp108
Rp109
g1
(g5
S'\x08\x00\x00\x00\x00\x00\x00\x00'
p110
tp111
Rp112
tp113
sg33
I1
sg34
I8
sg35
I14
sg36
F4411736.6492
ssg1
(g5
S'\t\x00\x00\x00\x00\x00\x00\x00'
p114
tp115
Rp116
(dp117
g12
I3
sg13
I6
sg14
I502
sg15
F0.002644
sg16
F510075000000.0
sg17
F19991.314259
sg18
F107600000000.0
sg19
I2
sg20
I2
sg21
F10.76
sg22
F254705.6275
sg23
F673.4399999999999
sg24
F0.1
sg25
(g1
(g5
S'\x02\x00\x00\x00\x00\x00\x00\x00'
p118
tp119
Rp120
g1
(g5
S'\t\x00\x00\x00\x00\x00\x00\x00'
p121
tp122
Rp123
tp124
sg33
I2
sg34
I9
sg35
I11
sg36
F5170645.3788
ssg1
(g5
S'\n\x00\x00\x00\x00\x00\x00\x00'
p125
tp126
Rp127
(dp128
g12
I0
sg13
I0
sg14
I593
sg15
F0.014131999999999999
sg16
F259500000000.0
sg17
F10214.33594
sg18
F259500000000.0
sg19
I2
sg20
I1
sg21
F25.95
sg22
F411629.50899999996
sg23
F5817.2609999999995
sg24
F0.1
sg25
(g1
(g5
S'\x02\x00\x00\x00\x00\x00\x00\x00'
p129
tp130
Rp131
g1
(g5
S'\n\x00\x00\x00\x00\x00\x00\x00'
p132
tp133
Rp134
tp135
sg33
I1
sg34
I10
sg35
I16
sg36
F2800279.5796
ssg1
(g5
S'\x0b\x00\x00\x00\x00\x00\x00\x00'
p136
tp137
Rp138
(dp139
g12
I9
sg13
I7
sg14
I509
sg15
F0.004882
sg16
F1047075000000.0
sg17
F41276.206655
sg18
F413125000000.0
sg19
I2
sg20
I3
sg21
F41.3125
sg22
F803050.8653
sg23
F3920.8100000000004
sg24
F0.1
sg25
(g1
(g5
S'\x02\x00\x00\x00\x00\x00\x00\x00'
p140
tp141
Rp142
g1
(g5
S'\x0b\x00\x00\x00\x00\x00\x00\x00'
p143
tp144
Rp145
tp146
sg33
I2
sg34
I11
sg35
I14
sg36
F4915939.7513
ssg1
(g5
S'\x0c\x00\x00\x00\x00\x00\x00\x00'
p147
tp148
Rp149
(dp150
g12
I5
sg13
I2
sg14
I492
sg15
F0.004478
sg16
F1253600000000.0
sg17
F55393.4741
sg18
F723675000000.0001
sg19
I1
sg20
I2
sg21
F72.3675
sg22
F1533172.7984000002
sg23
F6865.097
sg24
F0.1
sg25
(g1
(g5
S'\x01\x00\x00\x00\x00\x00\x00\x00'
p151
tp152
Rp153
g1
(g5
S'\x0c\x00\x00\x00\x00\x00\x00\x00'
p154
tp155
Rp156
tp157
sg33
I2
sg34
I12
sg35
I22
sg36
F4982361.1076
ssg1
(g5
S'\r\x00\x00\x00\x00\x00\x00\x00'
p158
tp159
Rp160
(dp161
g12
I0
sg13
I0
sg14
I616
sg15
F0.022488
sg16
F148725000000.0
sg17
F8792.480491
sg18
F148725000000.0
sg19
I2
sg20
I1
sg21
F14.8725
sg22
F183994.9494
sg23
F4137.767
sg24
F0.1
sg25
(g1
(g5
S'\x02\x00\x00\x00\x00\x00\x00\x00'
p162
tp163
Rp164
g1
(g5
S'\r\x00\x00\x00\x00\x00\x00\x00'
p165
tp166
Rp167
tp168
sg33
I1
sg34
I13
sg35
I16
sg36
F2572645.0199
ssg1
(g5
S'\x0e\x00\x00\x00\x00\x00\x00\x00'
p169
tp170
Rp171
(dp172
g12
I8
sg13
I11
sg14
I595
sg15
F0.00581
sg16
F1690050000000.0
sg17
F66897.702186
sg18
F517625000000.0
sg19
I2
sg20
I4
sg21
F51.7625
sg22
F1370538.2386999999
sg23
F7962.595
sg24
F0.1
sg25
(g1
(g5
S'\x02\x00\x00\x00\x00\x00\x00\x00'
p173
tp174
Rp175
g1
(g5
S'\x0e\x00\x00\x00\x00\x00\x00\x00'
p176
tp177
Rp178
tp179
sg33
I2
sg34
I14
sg35
I25
sg36
F4112888.8861
ssg1
(g5
S'\x10\x00\x00\x00\x00\x00\x00\x00'
p180
tp181
Rp182
(dp183
g12
I10
sg13
I13
sg14
I445
sg15
F0.013848
sg16
F656075000000.0
sg17
F25843.056631
sg18
F247850000000.0
sg19
I2
sg20
I2
sg21
F24.785
sg22
F509913.78030000004
sg23
F7061.407
sg24
F0.1
sg25
(g1
(g5
S'\x02\x00\x00\x00\x00\x00\x00\x00'
p184
tp185
Rp186
g1
(g5
S'\x10\x00\x00\x00\x00\x00\x00\x00'
p187
tp188
Rp189
tp190
sg33
I2
sg34
I16
sg35
I26
sg36
F2388650.0705000004
ssg1
(g5
S'\x11\x00\x00\x00\x00\x00\x00\x00'
p191
tp192
Rp193
(dp194
g12
I0
sg13
I0
sg14
I457
sg15
F0.015571999999999999
sg16
F228649999999.99997
sg17
F9031.040389
sg18
F228649999999.99997
sg19
I2
sg20
I1
sg21
F22.865
sg22
F431274.17
sg23
F6715.96
sg24
F0.1
sg25
(g1
(g5
S'\x02\x00\x00\x00\x00\x00\x00\x00'
p195
tp196
Rp197
g1
(g5
S'\x11\x00\x00\x00\x00\x00\x00\x00'
p198
tp199
Rp200
tp201
sg33
I1
sg34
I17
sg35
I26
sg36
F2310010.4602
ssg1
(g5
S'\x15\x00\x00\x00\x00\x00\x00\x00'
p202
tp203
Rp204
(dp205
g12
I0
sg13
I0
sg14
I442
sg15
F0.006421
sg16
F1078475000000.0
sg17
F42527.287775
sg18
F1078475000000.0
sg19
I1
sg20
I1
sg21
F107.8475
sg22
F3174335.4955
sg23
F20383.221
sg24
F0.1
sg25
(g1
(g5
S'\x01\x00\x00\x00\x00\x00\x00\x00'
p206
tp207
Rp208
g1
(g5
S'\x15\x00\x00\x00\x00\x00\x00\x00'
p209
tp210
Rp211
tp212
sg33
I1
sg34
I21
sg35
I33
sg36
F3587680.7332999995
ssg1
(g5
S'\x16\x00\x00\x00\x00\x00\x00\x00'
p213
tp214
Rp215
(dp216
g12
I12
sg13
I4
sg14
I444
sg15
F0.006255
sg16
F1534350000000.0
sg17
F60437.624296
sg18
F111800000000.0
sg19
I1
sg20
I3
sg21
F11.18
sg22
F706837.6618000001
sg23
F4421.295999999999
sg24
F0.1
sg25
(g1
(g5
S'\x01\x00\x00\x00\x00\x00\x00\x00'
p217
tp218
Rp219
g1
(g5
S'\x16\x00\x00\x00\x00\x00\x00\x00'
p220
tp221
Rp222
tp223
sg33
I2
sg34
I22
sg35
I25
sg36
F3449188.3092000005
ssg1
(g5
S'\x19\x00\x00\x00\x00\x00\x00\x00'
p224
tp225
Rp226
(dp227
g12
I22
sg13
I14
sg14
I368
sg15
F0.008298
sg16
F3520700000000.0
sg17
F139165.445666
sg18
F296300000000.0
sg19
I1
sg20
I7
sg21
F29.63
sg22
F1303319.9845999999
sg23
F10815.335000000001
sg24
F0.1
sg25
(g1
(g5
S'\x01\x00\x00\x00\x00\x00\x00\x00'
p228
tp229
Rp230
g1
(g5
S'\x19\x00\x00\x00\x00\x00\x00\x00'
p231
tp232
Rp233
tp234
sg33
I3
sg34
I25
sg35
I28
sg36
F2742350.6474
ssg1
(g5
S'\x1a\x00\x00\x00\x00\x00\x00\x00'
p235
tp236
Rp237
(dp238
g12
I17
sg13
I16
sg14
I312
sg15
F0.023228
sg16
F987575000000.0
sg17
F172922.662588
sg18
F102850000000.0
sg19
I2
sg20
I3
sg21
F10.285
sg22
F439705.6275
sg23
F10213.294
sg24
F0.1
sg25
(g1
(g5
S'\x02\x00\x00\x00\x00\x00\x00\x00'
p239
tp240
Rp241
g1
(g5
S'\x1a\x00\x00\x00\x00\x00\x00\x00'
p242
tp243
Rp244
tp245
sg33
I2
sg34
I26
sg35
I28
sg36
F1878736.2902000002
ssg1
(g5
S'\x1c\x00\x00\x00\x00\x00\x00\x00'
p246
tp247
Rp248
(dp249
g12
I25
sg13
I26
sg14
I349
sg15
F0.002746
sg16
F4844925000000.0
sg17
F191679.126564
sg18
F336650000000.0
sg19
I1
sg20
I10
sg21
F33.665
sg22
F716482.3228
sg23
F1967.279
sg24
F0.1
sg25
(g1
(g5
S'\x01\x00\x00\x00\x00\x00\x00\x00'
p250
tp251
Rp252
g1
(g5
S'\x1c\x00\x00\x00\x00\x00\x00\x00'
p253
tp254
Rp255
tp256
sg33
I3
sg34
I28
sg35
I32
sg36
F1439030.6627000002
ssg1
(g5
S' \x00\x00\x00\x00\x00\x00\x00'
p257
tp258
Rp259
(dp260
g12
I1
sg13
I28
sg14
I276
sg15
F0.0038280000000000002
sg16
F5263100000000.0
sg17
F207978.74516400002
sg18
F22799999999.999996
sg19
I1
sg20
I11
sg21
F2.28
sg22
F309203.10219999996
sg23
F1183.566
sg24
F0.1
sg25
(g1
(g5
S'\x01\x00\x00\x00\x00\x00\x00\x00'
p261
tp262
Rp263
g1
(g5
S' \x00\x00\x00\x00\x00\x00\x00'
p264
tp265
Rp266
tp267
sg33
I3
sg34
I32
sg35
I33
sg36
F722548.34
ssg1
(g5
S'!\x00\x00\x00\x00\x00\x00\x00'
p268
tp269
Rp270
(dp271
g12
I21
sg13
I32
sg14
I238
sg15
F0.002508
sg16
F6412300000000.0
sg17
F253119.42764
sg18
F70725000000.0
sg19
I1
sg20
I12
sg21
F7.0725
sg22
F413345.2378
sg23
F1036.771
sg24
F0.1
sg25
(g1
(g5
S'\x01\x00\x00\x00\x00\x00\x00\x00'
p272
tp273
Rp274
g1
(g5
S'!\x00\x00\x00\x00\x00\x00\x00'
p275
tp276
Rp277
tp278
sg33
I3
sg34
I33
sg35
I-1
sg36
F413345.2378
ss.