(dp0
cnumpy.core.multiarray
scalar
p1
(cnumpy
dtype
p2
(S'i8'
p3
I0
I1
tp4
Rp5
(I3
S'<'
p6
NNNI-1
I-1
I0
tp7
bS'\x01\x00\x00\x00\x00\x00\x00\x00'
p8
tp9
Rp10
(dp11
S'prev_str01'
p12
I0
sS'prev_str02'
p13
I0
sS'elevation'
p14
I921
sS'gradient'
p15
F0.11559200000000001
sS'upstream_area'
p16
F48616060000.0
sS'flow_accum'
p17
F1824.1805140000001
sS'area_sqcm'
p18
F48616060000.0
sS'parameter_group'
p19
I1
sS'shreve'
p20
I1
sS'area_sqkm'
p21
F4.861606
sS'length'
p22
F213662.30010000005
sS'elev_drop'
p23
F24697.699
sS'interception_factor'
p24
F0.4
sS'strahler'
p25
I1
sS'climate_group'
p26
I1
sS'next_stream'
p27
I3
sS'group'
p28
(g1
(g5
S'\x01\x00\x00\x00\x00\x00\x00\x00'
p29
tp30
Rp31
g1
(g5
S'\x01\x00\x00\x00\x00\x00\x00\x00'
p32
tp33
Rp34
tp35
sS'out_dist'
p36
F657348.1108
ssg1
(g5
S'\x02\x00\x00\x00\x00\x00\x00\x00'
p37
tp38
Rp39
(dp40
g12
I0
sg13
I0
sg14
I993
sg15
F0.172454
sg16
F36274670000.0
sg17
F1353.838704
sg18
F36274670000.0
sg19
I1
sg20
I1
sg21
F3.6274669999999998
sg22
F90459.82650000001
sg23
F15600.185
sg24
F0.4
sg25
I1
sg26
I1
sg27
I3
sg28
(g1
(g5
S'\x01\x00\x00\x00\x00\x00\x00\x00'
p41
tp42
Rp43
g1
(g5
S'\x01\x00\x00\x00\x00\x00\x00\x00'
p44
tp45
Rp46
tp47
sg36
F534145.6372
ssg1
(g5
S'\x03\x00\x00\x00\x00\x00\x00\x00'
p48
tp49
Rp50
(dp51
g12
I1
sg13
I2
sg14
I607
sg15
F0.035649
sg16
F168832120000.0
sg17
F6251.6667990000005
sg18
F83941389999.99998
sg19
I1
sg20
I2
sg21
F8.394139
sg22
F443685.8106000001
sg23
F15816.935000000001
sg24
F0.4
sg25
I2
sg26
I1
sg27
I-1
sg28
(g1
(g5
S'\x01\x00\x00\x00\x00\x00\x00\x00'
p52
tp53
Rp54
g1
(g5
S'\x01\x00\x00\x00\x00\x00\x00\x00'
p55
tp56
Rp57
tp58
sg36
F443685.8106000001
ss.