(dp0
cnumpy.core.multiarray
scalar
p1
(cnumpy
dtype
p2
(S'i8'
p3
I0
I1
tp4
Rp5
(I3
S'<'
p6
NNNI-1
I-1
I0
tp7
bS'\x01\x00\x00\x00\x00\x00\x00\x00'
p8
tp9
Rp10
(dp11
S'prev_str01'
p12
I0
sS'prev_str02'
p13
I0
sS'elevation'
p14
I921
sS'gradient'
p15
F0.11541300000000002
sS'upstream_area'
p16
F48650000000.0
sS'flow_accum'
p17
F1823.9456030000001
sS'area_sqcm'
p18
F48650000000.0
sS'parameter_group'
p19
I1
sS'shreve'
p20
I1
sS'area_sqkm'
p21
F4.865
sS'length'
p22
F213994.94939999998
sS'elev_drop'
p23
F24697.699
sS'interception_factor'
p24
F0.3
sS'group'
p25
(g1
(g5
S'\x01\x00\x00\x00\x00\x00\x00\x00'
p26
tp27
Rp28
g1
(g2
(S'f8'
p29
I0
I1
tp30
Rp31
(I3
S'<'
p32
NNNI-1
I-1
I0
tp33
bS'\x00\x00\x00\x00\x00\x00\xf0?'
p34
tp35
Rp36
tp37
sS'strahler'
p38
I1
sS'climate_group'
p39
F1.0
sS'next_stream'
p40
I3
sS'out_dist'
p41
F657340.1871999999
ssg1
(g5
S'\x02\x00\x00\x00\x00\x00\x00\x00'
p42
tp43
Rp44
(dp45
g12
I0
sg13
I0
sg14
I993
sg15
F0.172654
sg16
F36300000000.0
sg17
F1353.67967
sg18
F36300000000.0
sg19
I1
sg20
I1
sg21
F3.63
sg22
F90355.3391
sg23
F15600.185
sg24
F0.3
sg25
(g1
(g5
S'\x01\x00\x00\x00\x00\x00\x00\x00'
p46
tp47
Rp48
g1
(g31
S'\x00\x00\x00\x00\x00\x00\xf0?'
p49
tp50
Rp51
tp52
sg38
I1
sg39
F1.0
sg40
I3
sg41
F533700.5769
ssg1
(g5
S'\x03\x00\x00\x00\x00\x00\x00\x00'
p53
tp54
Rp55
(dp56
g12
I1
sg13
I2
sg14
I607
sg15
F0.035676
sg16
F168950000000.0
sg17
F6251.651154
sg18
F84000000000.0
sg19
I1
sg20
I2
sg21
F8.4
sg22
F443345.2378
sg23
F15816.935000000001
sg24
F0.3
sg25
(g1
(g5
S'\x01\x00\x00\x00\x00\x00\x00\x00'
p57
tp58
Rp59
g1
(g31
S'\x00\x00\x00\x00\x00\x00\xf0?'
p60
tp61
Rp62
tp63
sg38
I2
sg39
F1.0
sg40
I-1
sg41
F443345.2378
ss.