(dp0
cnumpy.core.multiarray
scalar
p1
(cnumpy
dtype
p2
(S'i8'
p3
I0
I1
tp4
Rp5
(I3
S'<'
p6
NNNI-1
I-1
I0
tp7
bS'\x02\x00\x00\x00\x00\x00\x00\x00'
p8
tp9
Rp10
(dp11
S'prev_str01'
p12
I4
sS'prev_str02'
p13
I6
sS'elevation'
p14
I644
sS'gradient'
p15
F0.000172
sS'upstream_area'
p16
F34227420000.0
sS'flow_accum'
p17
F1128.686698
sS'area_sqcm'
p18
F3652930000.0
sS'parameter_group'
p19
I2
sS'shreve'
p20
I2
sS'area_sqkm'
p21
F0.365293
sS'length'
p22
F75378.49570000001
sS'elev_drop'
p23
F13.0
sS'interception_factor'
p24
F0.2
sS'group'
p25
(g1
(g5
S'\x02\x00\x00\x00\x00\x00\x00\x00'
p26
tp27
Rp28
g1
(g5
S'\x02\x00\x00\x00\x00\x00\x00\x00'
p29
tp30
Rp31
tp32
sS'strahler'
p33
I2
sS'climate_group'
p34
I2
sS'next_stream'
p35
I-1
sS'out_dist'
p36
F75378.49570000001
ssg1
(g5
S'\x04\x00\x00\x00\x00\x00\x00\x00'
p37
tp38
Rp39
(dp40
g12
I0
sg13
I0
sg14
I162
sg15
F0.000176
sg16
F24869920000.0
sg17
F846.7666130000001
sg18
F24869920000.0
sg19
I2
sg20
I1
sg21
F2.486992
sg22
F317436.3517
sg23
F56.00000000000001
sg24
F0.2
sg25
(g1
(g5
S'\x02\x00\x00\x00\x00\x00\x00\x00'
p41
tp42
Rp43
g1
(g5
S'\x02\x00\x00\x00\x00\x00\x00\x00'
p44
tp45
Rp46
tp47
sg33
I1
sg34
I2
sg35
I2
sg36
F392814.8474
ssg1
(g5
S'\x06\x00\x00\x00\x00\x00\x00\x00'
p48
tp49
Rp50
(dp51
g12
I0
sg13
I0
sg14
I700
sg15
F0.6010909999999999
sg16
F5704570000.0
sg17
F157.183658
sg18
F5704570000.0
sg19
I2
sg20
I1
sg21
F0.570457
sg22
F88676.0214
sg23
F53302.393
sg24
F0.2
sg25
(g1
(g5
S'\x02\x00\x00\x00\x00\x00\x00\x00'
p52
tp53
Rp54
g1
(g5
S'\x02\x00\x00\x00\x00\x00\x00\x00'
p55
tp56
Rp57
tp58
sg33
I1
sg34
I2
sg35
I2
sg36
F164054.5171
ss.