(dp0
cnumpy.core.multiarray
scalar
p1
(cnumpy
dtype
p2
(S'i8'
p3
I0
I1
tp4
Rp5
(I3
S'<'
p6
NNNI-1
I-1
I0
tp7
bS'\x01\x00\x00\x00\x00\x00\x00\x00'
p8
tp9
Rp10
(dp11
S'mannings_n'
p12
F0.086
sS'Tgw_amplitude'
p13
F7.93
sS'rho'
p14
F1000.0
sS'cp'
p15
F4186.0
sS'temperature'
p16
F11.0
sS'Tgw_phase'
p17
F200.0
sS'angle'
p18
F39.1
sS'alphaw'
p19
F0.05
sS'kh'
p20
F13.189
sS'eps'
p21
F0.95
sS'Tgw_offset'
p22
F10.0
sS'model'
p23
ctemperature
LagrangianSimpleTemperatureTriangular
p24
sS'sigma'
p25
F5.67e-08
sS'Tgw_sd'
p26
F60.0
ssg1
(g5
S'\x02\x00\x00\x00\x00\x00\x00\x00'
p27
tp28
Rp29
(dp30
g12
F0.086
sg13
F7.93
sg14
F1000.0
sg15
F4186.0
sg16
F11.0
sg17
F200.0
sg18
F39.1
sg19
F0.05
sg20
F13.189
sg21
F0.95
sg22
F10.0
sg23
g24
sg25
F5.67e-08
sg26
F60.0
ssg1
(g5
S'\x03\x00\x00\x00\x00\x00\x00\x00'
p31
tp32
Rp33
(dp34
g12
F0.086
sg13
F7.93
sg14
F1000.0
sg15
F4186.0
sg16
F11.0
sg17
F200.0
sg18
F39.1
sg19
F0.05
sg20
F13.189
sg21
F0.95
sg22
F10.0
sg23
g24
sg25
F5.67e-08
sg26
F60.0
ss.