(dp0
cnumpy.core.multiarray
scalar
p1
(cnumpy
dtype
p2
(S'i8'
p3
I0
I1
tp4
Rp5
(I3
S'<'
p6
NNNI-1
I-1
I0
tp7
bS'\x01\x00\x00\x00\x00\x00\x00\x00'
p8
tp9
Rp10
(dp11
S'mannings_n'
p12
F0.1
sS'thetamax'
p13
F0.8722222222222222
sS'windspeed'
p14
F1.0
sS'rho'
p15
F1000.0
sS'cp'
p16
F4186.0
sS'alphaw'
p17
F0.05
sS'Tgw'
p18
F11.0
sS'kh'
p19
F5.5969
sS'eps'
p20
F0.95
sS'temperature'
p21
F11.0
sS'thetahalf'
p22
F10600000000.0
sS'model'
p23
ctemperature
LagrangianSimpleTemperatureTriangular
p24
sS'sigma'
p25
F5.67e-08
ssg1
(g5
S'\x02\x00\x00\x00\x00\x00\x00\x00'
p26
tp27
Rp28
(dp29
g12
F0.1
sg13
F0.8722222222222222
sg14
F1.0
sg15
F1000.0
sg16
F4186.0
sg17
F0.05
sg18
F11.0
sg19
F5.5969
sg20
F0.95
sg21
F11.0
sg22
F10600000000.0
sg23
g24
sg25
F5.67e-08
ssg1
(g5
S'\x03\x00\x00\x00\x00\x00\x00\x00'
p30
tp31
Rp32
(dp33
g12
F0.1
sg13
F0.8722222222222222
sg14
F1.0
sg15
F1000.0
sg16
F4186.0
sg17
F0.05
sg18
F11.0
sg19
F5.5969
sg20
F0.95
sg21
F11.0
sg22
F10600000000.0
sg23
g24
sg25
F5.67e-08
ssg1
(g5
S'\x04\x00\x00\x00\x00\x00\x00\x00'
p34
tp35
Rp36
(dp37
g12
F0.1
sg13
F0.8722222222222222
sg14
F1.0
sg15
F1000.0
sg16
F4186.0
sg17
F0.05
sg18
F11.0
sg19
F5.5969
sg20
F0.95
sg21
F11.0
sg22
F10600000000.0
sg23
g24
sg25
F5.67e-08
ssg1
(g5
S'\x05\x00\x00\x00\x00\x00\x00\x00'
p38
tp39
Rp40
(dp41
g12
F0.1
sg13
F0.8722222222222222
sg14
F1.0
sg15
F1000.0
sg16
F4186.0
sg17
F0.05
sg18
F11.0
sg19
F5.5969
sg20
F0.95
sg21
F11.0
sg22
F10600000000.0
sg23
g24
sg25
F5.67e-08
ssg1
(g5
S'\x06\x00\x00\x00\x00\x00\x00\x00'
p42
tp43
Rp44
(dp45
g12
F0.1
sg13
F0.8722222222222222
sg14
F1.0
sg15
F1000.0
sg16
F4186.0
sg17
F0.05
sg18
F11.0
sg19
F5.5969
sg20
F0.95
sg21
F11.0
sg22
F10600000000.0
sg23
g24
sg25
F5.67e-08
ssg1
(g5
S'\x07\x00\x00\x00\x00\x00\x00\x00'
p46
tp47
Rp48
(dp49
g12
F0.1
sg13
F0.8722222222222222
sg14
F1.0
sg15
F1000.0
sg16
F4186.0
sg17
F0.05
sg18
F11.0
sg19
F5.5969
sg20
F0.95
sg21
F11.0
sg22
F10600000000.0
sg23
g24
sg25
F5.67e-08
ssg1
(g5
S'\x08\x00\x00\x00\x00\x00\x00\x00'
p50
tp51
Rp52
(dp53
g12
F0.1
sg13
F0.8722222222222222
sg14
F1.0
sg15
F1000.0
sg16
F4186.0
sg17
F0.05
sg18
F11.0
sg19
F5.5969
sg20
F0.95
sg21
F11.0
sg22
F10600000000.0
sg23
g24
sg25
F5.67e-08
ssg1
(g5
S'\t\x00\x00\x00\x00\x00\x00\x00'
p54
tp55
Rp56
(dp57
g12
F0.1
sg13
F0.8722222222222222
sg14
F1.0
sg15
F1000.0
sg16
F4186.0
sg17
F0.05
sg18
F11.0
sg19
F5.5969
sg20
F0.95
sg21
F11.0
sg22
F10600000000.0
sg23
g24
sg25
F5.67e-08
ssg1
(g5
S'\n\x00\x00\x00\x00\x00\x00\x00'
p58
tp59
Rp60
(dp61
g12
F0.1
sg13
F0.8722222222222222
sg14
F1.0
sg15
F1000.0
sg16
F4186.0
sg17
F0.05
sg18
F11.0
sg19
F5.5969
sg20
F0.95
sg21
F11.0
sg22
F10600000000.0
sg23
g24
sg25
F5.67e-08
ssg1
(g5
S'\x0b\x00\x00\x00\x00\x00\x00\x00'
p62
tp63
Rp64
(dp65
g12
F0.1
sg13
F0.8722222222222222
sg14
F1.0
sg15
F1000.0
sg16
F4186.0
sg17
F0.05
sg18
F11.0
sg19
F5.5969
sg20
F0.95
sg21
F11.0
sg22
F10600000000.0
sg23
g24
sg25
F5.67e-08
ssg1
(g5
S'\x0c\x00\x00\x00\x00\x00\x00\x00'
p66
tp67
Rp68
(dp69
g12
F0.1
sg13
F0.8722222222222222
sg14
F1.0
sg15
F1000.0
sg16
F4186.0
sg17
F0.05
sg18
F11.0
sg19
F5.5969
sg20
F0.95
sg21
F11.0
sg22
F10600000000.0
sg23
g24
sg25
F5.67e-08
ssg1
(g5
S'\r\x00\x00\x00\x00\x00\x00\x00'
p70
tp71
Rp72
(dp73
g12
F0.1
sg13
F0.8722222222222222
sg14
F1.0
sg15
F1000.0
sg16
F4186.0
sg17
F0.05
sg18
F11.0
sg19
F5.5969
sg20
F0.95
sg21
F11.0
sg22
F10600000000.0
sg23
g24
sg25
F5.67e-08
ssg1
(g5
S'\x0e\x00\x00\x00\x00\x00\x00\x00'
p74
tp75
Rp76
(dp77
g12
F0.1
sg13
F0.8722222222222222
sg14
F1.0
sg15
F1000.0
sg16
F4186.0
sg17
F0.05
sg18
F11.0
sg19
F5.5969
sg20
F0.95
sg21
F11.0
sg22
F10600000000.0
sg23
g24
sg25
F5.67e-08
ssg1
(g5
S'\x10\x00\x00\x00\x00\x00\x00\x00'
p78
tp79
Rp80
(dp81
g12
F0.1
sg13
F0.8722222222222222
sg14
F1.0
sg15
F1000.0
sg16
F4186.0
sg17
F0.05
sg18
F11.0
sg19
F5.5969
sg20
F0.95
sg21
F11.0
sg22
F10600000000.0
sg23
g24
sg25
F5.67e-08
ssg1
(g5
S'\x11\x00\x00\x00\x00\x00\x00\x00'
p82
tp83
Rp84
(dp85
g12
F0.1
sg13
F0.8722222222222222
sg14
F1.0
sg15
F1000.0
sg16
F4186.0
sg17
F0.05
sg18
F11.0
sg19
F5.5969
sg20
F0.95
sg21
F11.0
sg22
F10600000000.0
sg23
g24
sg25
F5.67e-08
ssg1
(g5
S'\x15\x00\x00\x00\x00\x00\x00\x00'
p86
tp87
Rp88
(dp89
g12
F0.1
sg13
F0.8722222222222222
sg14
F1.0
sg15
F1000.0
sg16
F4186.0
sg17
F0.05
sg18
F11.0
sg19
F5.5969
sg20
F0.95
sg21
F11.0
sg22
F10600000000.0
sg23
g24
sg25
F5.67e-08
ssg1
(g5
S'\x16\x00\x00\x00\x00\x00\x00\x00'
p90
tp91
Rp92
(dp93
g12
F0.1
sg13
F0.8722222222222222
sg14
F1.0
sg15
F1000.0
sg16
F4186.0
sg17
F0.05
sg18
F11.0
sg19
F5.5969
sg20
F0.95
sg21
F11.0
sg22
F10600000000.0
sg23
g24
sg25
F5.67e-08
ssg1
(g5
S'\x19\x00\x00\x00\x00\x00\x00\x00'
p94
tp95
Rp96
(dp97
g12
F0.1
sg13
F0.8722222222222222
sg14
F1.0
sg15
F1000.0
sg16
F4186.0
sg17
F0.05
sg18
F11.0
sg19
F5.5969
sg20
F0.95
sg21
F11.0
sg22
F10600000000.0
sg23
g24
sg25
F5.67e-08
ssg1
(g5
S'\x1a\x00\x00\x00\x00\x00\x00\x00'
p98
tp99
Rp100
(dp101
g12
F0.1
sg13
F0.8722222222222222
sg14
F1.0
sg15
F1000.0
sg16
F4186.0
sg17
F0.05
sg18
F11.0
sg19
F5.5969
sg20
F0.95
sg21
F11.0
sg22
F10600000000.0
sg23
g24
sg25
F5.67e-08
ssg1
(g5
S'\x1c\x00\x00\x00\x00\x00\x00\x00'
p102
tp103
Rp104
(dp105
g12
F0.1
sg13
F0.8722222222222222
sg14
F1.0
sg15
F1000.0
sg16
F4186.0
sg17
F0.05
sg18
F11.0
sg19
F5.5969
sg20
F0.95
sg21
F11.0
sg22
F10600000000.0
sg23
g24
sg25
F5.67e-08
ssg1
(g5
S' \x00\x00\x00\x00\x00\x00\x00'
p106
tp107
Rp108
(dp109
g12
F0.1
sg13
F0.8722222222222222
sg14
F1.0
sg15
F1000.0
sg16
F4186.0
sg17
F0.05
sg18
F11.0
sg19
F5.5969
sg20
F0.95
sg21
F11.0
sg22
F10600000000.0
sg23
g24
sg25
F5.67e-08
ssg1
(g5
S'!\x00\x00\x00\x00\x00\x00\x00'
p110
tp111
Rp112
(dp113
g12
F0.1
sg13
F0.8722222222222222
sg14
F1.0
sg15
F1000.0
sg16
F4186.0
sg17
F0.05
sg18
F11.0
sg19
F5.5969
sg20
F0.95
sg21
F11.0
sg22
F10600000000.0
sg23
g24
sg25
F5.67e-08
ss.