(dp0
cnumpy.core.multiarray
scalar
p1
(cnumpy
dtype
p2
(S'i8'
p3
I0
I1
tp4
Rp5
(I3
S'<'
p6
NNNI-1
I-1
I0
tp7
bS'\x01\x00\x00\x00\x00\x00\x00\x00'
p8
tp9
Rp10
(dp11
S'kh'
p12
(F1.0
F20.0
tp13
sS'alphaw'
p14
(F0.05
F0.5
tp15
ssg1
(g5
S'\x02\x00\x00\x00\x00\x00\x00\x00'
p16
tp17
Rp18
(dp19
g12
g13
sg14
g15
ssg1
(g5
S'\x03\x00\x00\x00\x00\x00\x00\x00'
p20
tp21
Rp22
(dp23
g12
g13
sg14
g15
ss.