(dp0
cnumpy.core.multiarray
scalar
p1
(cnumpy
dtype
p2
(S'i8'
p3
I0
I1
tp4
Rp5
(I3
S'<'
p6
NNNI-1
I-1
I0
tp7
bS'\x01\x00\x00\x00\x00\x00\x00\x00'
p8
tp9
Rp10
(dp11
S'mannings_n'
p12
F0.2
sS'kh'
p13
F10.96
sS'e'
p14
F3.31
sS'kf'
p15
F1.84
sS'g'
p16
F0.5
sS'f'
p17
F0.175
sS'ktau'
p18
F1.59
sS'eps'
p19
F1.0
sS'Tgw_offset'
p20
F10.0
sS'tau0'
p21
F0.52
sS'temperature'
p22
F11.0
sS'rho'
p23
F1000.0
sS'model'
p24
ctemperature
LagrangianSimpleTemperatureChengHeatedGW
p25
sS'cp'
p26
F4186.0
sS'sigma'
p27
F5.67e-08
sS'alphaw'
p28
F0.2
ssg1
(g5
S'\x02\x00\x00\x00\x00\x00\x00\x00'
p29
tp30
Rp31
(dp32
g12
F0.2
sg13
F10.96
sg14
F3.31
sg15
F1.84
sg16
F0.5
sg17
F0.175
sg18
F1.59
sg19
F1.0
sg20
F10.0
sg21
F0.52
sg22
F11.0
sg23
F1000.0
sg24
g25
sg26
F4186.0
sg27
F5.67e-08
sg28
F0.2
ssg1
(g5
S'\x03\x00\x00\x00\x00\x00\x00\x00'
p33
tp34
Rp35
(dp36
g12
F0.2
sg13
F10.96
sg14
F3.31
sg15
F1.84
sg16
F0.5
sg17
F0.175
sg18
F1.59
sg19
F1.0
sg20
F10.0
sg21
F0.52
sg22
F11.0
sg23
F1000.0
sg24
g25
sg26
F4186.0
sg27
F5.67e-08
sg28
F0.2
ss.