(dp0
cnumpy.core.multiarray
scalar
p1
(cnumpy
dtype
p2
(S'i8'
p3
I0
I1
tp4
Rp5
(I3
S'<'
p6
NNNI-1
I-1
I0
tp7
bS'\x01\x00\x00\x00\x00\x00\x00\x00'
p8
tp9
Rp10
(dp11
S'mannings_n'
p12
(F0.01
F0.2
tp13
sS'angle'
p14
(I20
I60
tp15
sS'kh'
p16
(F5.0
F18.0
tp17
sS'Tgw_amplitude'
p18
(F4.0
F10.0
tp19
sS'Tgw_offset'
p20
(F10.0
F11.0
tp21
sS'Tgw_phase'
p22
(I180
I220
tp23
sS'Tgw_sd'
p24
(I30
I70
tp25
ssg1
(g5
S'\x02\x00\x00\x00\x00\x00\x00\x00'
p26
tp27
Rp28
(dp29
g12
g13
sg14
g15
sg16
g17
sg18
g19
sg20
g21
sg22
g23
sg24
g25
ssg1
(g5
S'\x03\x00\x00\x00\x00\x00\x00\x00'
p30
tp31
Rp32
(dp33
g12
g13
sg14
g15
sg16
g17
sg18
g19
sg20
g21
sg22
g23
sg24
g25
ss.