(dp0
cnumpy.core.multiarray
scalar
p1
(cnumpy
dtype
p2
(S'i8'
p3
I0
I1
tp4
Rp5
(I3
S'<'
p6
NNNI-1
I-1
I0
tp7
bS'\x01\x00\x00\x00\x00\x00\x00\x00'
p8
tp9
Rp10
(dp11
S'tau0'
p12
(F0.1
I2
tp13
sS'ktau'
p14
(F0.01
F5.0
tp15
sS'kf'
p16
(F0.1
F20.0
tp17
sS'kh'
p18
(F5.0
F14.0
tp19
ssg1
(g5
S'\x02\x00\x00\x00\x00\x00\x00\x00'
p20
tp21
Rp22
(dp23
g12
g13
sg14
g15
sg16
g17
sg18
g19
ssg1
(g5
S'\x03\x00\x00\x00\x00\x00\x00\x00'
p24
tp25
Rp26
(dp27
g12
g13
sg14
g15
sg16
g17
sg18
g19
ss.