(dp0
cnumpy.core.multiarray
scalar
p1
(cnumpy
dtype
p2
(S'i8'
p3
I0
I1
tp4
Rp5
(I3
S'<'
p6
NNNI-1
I-1
I0
tp7
bS'\x01\x00\x00\x00\x00\x00\x00\x00'
p8
tp9
Rp10
(dp11
S'c2'
p12
(F0.1
F3.0
tp13
sS'c1'
p14
(F0.1
F3.0
tp15
sS'kh'
p16
(F0.1
F20.0
tp17
sS'windspeed'
p18
(F0.5
F3.0
tp19
sS'alphaw'
p20
(F0.01
F0.2
tp21
ssg1
(g5
S'\x02\x00\x00\x00\x00\x00\x00\x00'
p22
tp23
Rp24
(dp25
g12
g13
sg14
g15
sg16
g17
sg18
g19
sg20
g21
ssg1
(g5
S'\x03\x00\x00\x00\x00\x00\x00\x00'
p26
tp27
Rp28
(dp29
g12
g13
sg14
g15
sg16
g17
sg18
g19
sg20
g21
ss.