(dp0
cnumpy.core.multiarray
scalar
p1
(cnumpy
dtype
p2
(S'i8'
p3
I0
I1
tp4
Rp5
(I3
S'<'
p6
NNNI-1
I-1
I0
tp7
bS'\x01\x00\x00\x00\x00\x00\x00\x00'
p8
tp9
Rp10
(dp11
S'windspeed'
p12
F1.0
sS'rho'
p13
F1000.0
sS'c2'
p14
F1.0
sS'c1'
p15
F1.0
sS'cp'
p16
F4186.0
sS'temperature'
p17
F11.0
sS'Tgw'
p18
F11.0
sS'kh'
p19
F5.5969
sS'eps'
p20
F0.95
sS'alphaw'
p21
F0.05
sS'model'
p22
ctemperature
EulerianWesthoff
p23
sS'sigma'
p24
F5.67e-08
ssg1
(g5
S'\x02\x00\x00\x00\x00\x00\x00\x00'
p25
tp26
Rp27
(dp28
g12
F1.0
sg13
F1000.0
sg14
F1.0
sg15
F1.0
sg16
F4186.0
sg17
F11.0
sg18
F11.0
sg19
F5.5969
sg20
F0.95
sg21
F0.05
sg22
g23
sg24
F5.67e-08
ssg1
(g5
S'\x03\x00\x00\x00\x00\x00\x00\x00'
p29
tp30
Rp31
(dp32
g12
F1.0
sg13
F1000.0
sg14
F1.0
sg15
F1.0
sg16
F4186.0
sg17
F11.0
sg18
F11.0
sg19
F5.5969
sg20
F0.95
sg21
F0.05
sg22
g23
sg24
F5.67e-08
ss.