(dp0
cnumpy.core.multiarray
scalar
p1
(cnumpy
dtype
p2
(S'i8'
p3
I0
I1
tp4
Rp5
(I3
S'<'
p6
NNNI-1
I-1
I0
tp7
bS'\x01\x00\x00\x00\x00\x00\x00\x00'
p8
tp9
Rp10
(dp11
S'mannings_n'
p12
F0.166
sS'ktau'
p13
F0.5
sS'rho'
p14
F1000.0
sS'cp'
p15
F4186.0
sS'alphaw'
p16
F0.05
sS'angle'
p17
F29.28
sS'kf'
p18
F1.0
sS'kh'
p19
F13.0
sS'eps'
p20
F1.0
sS'Tgw_offset'
p21
F11.0
sS'tau0'
p22
F0.4
sS'temperature'
p23
F11.0
sS'model'
p24
ctemperature
LagrangianSimpleTemperatureTriangularHeatedGW
p25
sS'sigma'
p26
F5.67e-08
ssg1
(g5
S'\x02\x00\x00\x00\x00\x00\x00\x00'
p27
tp28
Rp29
(dp30
g12
F0.166
sg13
F0.5
sg14
F1000.0
sg15
F4186.0
sg16
F0.05
sg17
F29.28
sg18
F1.0
sg19
F13.0
sg20
F1.0
sg21
F11.0
sg22
F0.4
sg23
F11.0
sg24
g25
sg26
F5.67e-08
ssg1
(g5
S'\x03\x00\x00\x00\x00\x00\x00\x00'
p31
tp32
Rp33
(dp34
g12
F0.166
sg13
F0.5
sg14
F1000.0
sg15
F4186.0
sg16
F0.05
sg17
F29.28
sg18
F1.0
sg19
F13.0
sg20
F1.0
sg21
F11.0
sg22
F0.4
sg23
F11.0
sg24
g25
sg26
F5.67e-08
ss.