(dp0
cnumpy.core.multiarray
scalar
p1
(cnumpy
dtype
p2
(S'i8'
p3
I0
I1
tp4
Rp5
(I3
S'<'
p6
NNNI-1
I-1
I0
tp7
bS'\x02\x00\x00\x00\x00\x00\x00\x00'
p8
tp9
Rp10
(dp11
S'mannings_n'
p12
F0.1
sS'thetamax'
p13
F0.8722222222222222
sS'windspeed'
p14
F1.0
sS'rho'
p15
F1000.0
sS'cp'
p16
F4186.0
sS'alphaw'
p17
F0.05
sS'Tgw'
p18
F11.0
sS'kh'
p19
F5.5969
sS'eps'
p20
F0.95
sS'temperature'
p21
F11.0
sS'thetahalf'
p22
F10600000000.0
sS'model'
p23
ctemperature
LagrangianSimpleTemperatureTriangular
p24
sS'sigma'
p25
F5.67e-08
ssg1
(g5
S'\x04\x00\x00\x00\x00\x00\x00\x00'
p26
tp27
Rp28
(dp29
g12
F0.1
sg13
F0.8722222222222222
sg14
F1.0
sg15
F1000.0
sg16
F4186.0
sg17
F0.05
sg18
F11.0
sg19
F5.5969
sg20
F0.95
sg21
F11.0
sg22
F10600000000.0
sg23
g24
sg25
F5.67e-08
ssg1
(g5
S'\x06\x00\x00\x00\x00\x00\x00\x00'
p30
tp31
Rp32
(dp33
g12
F0.1
sg13
F0.8722222222222222
sg14
F1.0
sg15
F1000.0
sg16
F4186.0
sg17
F0.05
sg18
F11.0
sg19
F5.5969
sg20
F0.95
sg21
F11.0
sg22
F10600000000.0
sg23
g24
sg25
F5.67e-08
ss.