(dp0
cnumpy.core.multiarray
scalar
p1
(cnumpy
dtype
p2
(S'i8'
p3
I0
I1
tp4
Rp5
(I3
S'<'
p6
NNNI-1
I-1
I0
tp7
bS'\x01\x00\x00\x00\x00\x00\x00\x00'
p8
tp9
Rp10
(dp11
S'mannings_n'
p12
F0.1
sS'Tgw_amplitude'
p13
F4.98
sS'rho'
p14
F1000.0
sS'cp'
p15
F4186.0
sS'temperature'
p16
F11.0
sS'Tgw_phase'
p17
F114.0
sS'angle'
p18
F35.1
sS'alphaw'
p19
F0.05
sS'kh'
p20
F14.469
sS'eps'
p21
F0.95
sS'Tgw_offset'
p22
F13.0
sS'model'
p23
ctemperature
LagrangianSimpleTemperatureTriangular
p24
sS'sigma'
p25
F5.67e-08
ssg1
(g5
S'\x02\x00\x00\x00\x00\x00\x00\x00'
p26
tp27
Rp28
(dp29
g12
F0.1
sg13
F4.98
sg14
F1000.0
sg15
F4186.0
sg16
F11.0
sg17
F114.0
sg18
F35.1
sg19
F0.05
sg20
F14.469
sg21
F0.95
sg22
F13.0
sg23
g24
sg25
F5.67e-08
ssg1
(g5
S'\x03\x00\x00\x00\x00\x00\x00\x00'
p30
tp31
Rp32
(dp33
g12
F0.1
sg13
F4.98
sg14
F1000.0
sg15
F4186.0
sg16
F11.0
sg17
F114.0
sg18
F35.1
sg19
F0.05
sg20
F14.469
sg21
F0.95
sg22
F13.0
sg23
g24
sg25
F5.67e-08
ss.