(dp0
cnumpy.core.multiarray
scalar
p1
(cnumpy
dtype
p2
(S'i8'
p3
I0
I1
tp4
Rp5
(I3
S'<'
p6
NNNI-1
I-1
I0
tp7
bS'\x01\x00\x00\x00\x00\x00\x00\x00'
p8
tp9
Rp10
(dp11
S'rho'
p12
F1000.0
sS'c2'
p13
F0.98419
sS'c1'
p14
F1.479
sS'cp'
p15
F4186.0
sS'temperature'
p16
F11.0
sS'Tgw'
p17
F11.0
sS'kh'
p18
F9.5969
sS'eps'
p19
F0.95
sS'alphaw'
p20
F0.05
sS'model'
p21
ctemperature
LagrangianSimpleTemperature
p22
sS'sigma'
p23
F5.67e-08
ssg1
(g5
S'\x02\x00\x00\x00\x00\x00\x00\x00'
p24
tp25
Rp26
(dp27
g12
F1000.0
sg13
F0.98419
sg14
F1.479
sg15
F4186.0
sg16
F11.0
sg17
F11.0
sg18
F9.5969
sg19
F0.95
sg20
F0.05
sg21
g22
sg23
F5.67e-08
ssg1
(g5
S'\x03\x00\x00\x00\x00\x00\x00\x00'
p28
tp29
Rp30
(dp31
g12
F1000.0
sg13
F0.98419
sg14
F1.479
sg15
F4186.0
sg16
F11.0
sg17
F11.0
sg18
F9.5969
sg19
F0.95
sg20
F0.05
sg21
g22
sg23
F5.67e-08
ss.