(dp0
cnumpy.core.multiarray
scalar
p1
(cnumpy
dtype
p2
(S'i8'
p3
I0
I1
tp4
Rp5
(I3
S'<'
p6
NNNI-1
I-1
I0
tp7
bS'\x01\x00\x00\x00\x00\x00\x00\x00'
p8
tp9
Rp10
(dp11
S'mannings_n'
p12
(F0.01
F0.15
tp13
sS'tau0'
p14
(F0.1
I2
tp15
sS'kh'
p16
(F5.0
F14.0
tp17
sS'e'
p18
(F0.5
F3.0
tp19
sS'kf'
p20
(F0.1
F20.0
tp21
sS'g'
p22
(F0.2
F1.0
tp23
sS'f'
p24
(F0.01
F0.6
tp25
sS'ktau'
p26
(F0.01
F5.0
tp27
ssg1
(g5
S'\x02\x00\x00\x00\x00\x00\x00\x00'
p28
tp29
Rp30
(dp31
g12
g13
sg14
g15
sg16
g17
sg18
g19
sg20
g21
sg22
g23
sg24
g25
sg26
g27
ssg1
(g5
S'\x03\x00\x00\x00\x00\x00\x00\x00'
p32
tp33
Rp34
(dp35
g12
g13
sg14
g15
sg16
g17
sg18
g19
sg20
g21
sg22
g23
sg24
g25
sg26
g27
ss.