(dp0
cnumpy.core.multiarray
scalar
p1
(cnumpy
dtype
p2
(S'i8'
p3
I0
I1
tp4
Rp5
(I3
S'<'
p6
NNNI-1
I-1
I0
tp7
bS'\x01\x00\x00\x00\x00\x00\x00\x00'
p8
tp9
Rp10
(dp11
S'kh'
p12
F5.0
sS'Tgw'
p13
F11.0
sS'rho'
p14
F1000.0
sS'temperature'
p15
F10.0
sS'model'
p16
ctemperature
SimpleTemperature
p17
sS'cp'
p18
F4186.0
sS'sigma'
p19
F5.67e-08
sS'eps'
p20
F0.95
sS'alphaw'
p21
F0.05
ssg1
(g5
S'\x02\x00\x00\x00\x00\x00\x00\x00'
p22
tp23
Rp24
(dp25
g12
F5.0
sg13
F11.0
sg14
F1000.0
sg15
F10.0
sg16
g17
sg18
F4186.0
sg19
F5.67e-08
sg20
F0.95
sg21
F0.05
ssg1
(g5
S'\x03\x00\x00\x00\x00\x00\x00\x00'
p26
tp27
Rp28
(dp29
g12
F5.0
sg13
F11.0
sg14
F1000.0
sg15
F10.0
sg16
g17
sg18
F4186.0
sg19
F5.67e-08
sg20
F0.95
sg21
F0.05
ss.