(lp0
F0.9598122481542918
aF0.9362452437305602
aF0.8688000417713079
aF0.7241062893874863
aF-inf
aF0.9368312158445388
aF0.9491501156060348
aF0.8479183815961784
aF0.8586951343226366
aF0.8936403496097478
aF0.8754874197428318
aF0.9095518506958543
aF0.9055976537157919
aF-6.678917773783547
aF0.884964965228663
aF0.7414578118615727
aF0.8814127328736715
aF0.9377137782762104
aF0.9316772731268207
aF0.9339242254795894
a.