(lp0
(dp1
I1
(dp2
S'a'
p3
F0.0025162131208973553
sS'k12'
p4
F0.43089182811381643
sS'b'
p5
F2.103462067831784
sS'zrS'
p6
F50.0
sS'zrR'
p7
F649.3391578893462
sS'f'
p8
F0.8143252062969656
sS'res2'
p9
F1.0
sS's0R'
p10
F0.20602880629259226
sS'res1'
p11
F1.0
sS'storageR'
p12
F100.0
sS'gz'
p13
cgroundwaterZone
LinearToNonlinearReservoir
p14
sS's0S'
p15
F0.19
sS'k1'
p16
F0.35718048942052344
sS'stR'
p17
F0.1380875832574609
sS'stS'
p18
F0.6
sS'nR'
p19
F0.28068264854209474
sS'nS'
p20
F0.4
sS'storageS'
p21
F1.0
sS'vz'
p22
cvadoseZone
SimpleRockMoistureZone
p23
ssa(dp24
I1
(dp25
g3
F0.002565388878157559
sg4
F0.3237263553707263
sg5
F2.149617544477721
sg6
F50.0
sg7
F880.4115202883365
sg8
F0.1455943069608094
sg9
F1.0
sg10
F0.1855074141602594
sg11
F1.0
sg12
F100.0
sg13
g14
sg15
F0.19
sg16
F0.21379397803251354
sg17
F0.255677357628041
sg18
F0.6
sg19
F0.06919930239315245
sg20
F0.4
sg21
F1.0
sg22
g23
ssa(dp26
I1
(dp27
g3
F0.001707233934323705
sg4
F0.4288371015600214
sg5
F2.222991339320548
sg6
F50.0
sg7
F657.4047535217145
sg8
F0.34150833498873223
sg9
F1.0
sg10
F0.1452472494801297
sg11
F1.0
sg12
F100.0
sg13
g14
sg15
F0.19
sg16
F0.3771632507798487
sg17
F0.39362206446669734
sg18
F0.6
sg19
F0.01210142948178499
sg20
F0.4
sg21
F1.0
sg22
g23
ssa(dp28
I1
(dp29
g3
F0.003425353147231845
sg4
F0.4923316683092968
sg5
F2.0397989277273876
sg6
F50.0
sg7
F975.8235899853928
sg8
F0.466434402439557
sg9
F1.0
sg10
F0.10398669587773823
sg11
F1.0
sg12
F100.0
sg13
g14
sg15
F0.19
sg16
F0.2062803315093776
sg17
F0.2506325492541224
sg18
F0.6
sg19
F0.010248930911263911
sg20
F0.4
sg21
F1.0
sg22
g23
ssa(dp30
I1
(dp31
g3
F0.0024990517808124073
sg4
F0.34156167472379295
sg5
F2.121088547618976
sg6
F50.0
sg7
F618.9385451958076
sg8
F0.7912223972001138
sg9
F1.0
sg10
F0.25770381473806614
sg11
F1.0
sg12
F100.0
sg13
g14
sg15
F0.19
sg16
F0.35897819822502297
sg17
F0.2571178162300882
sg18
F0.6
sg19
F0.06536991402939187
sg20
F0.4
sg21
F1.0
sg22
g23
ssa(dp32
I1
(dp33
g3
F0.0023503318954204598
sg4
F0.44133161129925613
sg5
F2.1020671509294813
sg6
F50.0
sg7
F1145.5266196269317
sg8
F0.305944573629645
sg9
F1.0
sg10
F0.08097470824970827
sg11
F1.0
sg12
F100.0
sg13
g14
sg15
F0.19
sg16
F0.3189613161467558
sg17
F0.11627849696543678
sg18
F0.6
sg19
F0.0569891332234149
sg20
F0.4
sg21
F1.0
sg22
g23
ssa(dp34
I1
(dp35
g3
F0.004948613178046539
sg4
F0.3089483683970064
sg5
F1.829020762505324
sg6
F50.0
sg7
F548.9535646814813
sg8
F0.3236280877674421
sg9
F1.0
sg10
F0.12914577802967783
sg11
F1.0
sg12
F100.0
sg13
g14
sg15
F0.19
sg16
F0.28469167079695273
sg17
F0.17204522044461007
sg18
F0.6
sg19
F0.09888675262897986
sg20
F0.4
sg21
F1.0
sg22
g23
ssa(dp36
I1
(dp37
g3
F0.0010866729638846155
sg4
F0.39717524314905345
sg5
F2.448035572393757
sg6
F50.0
sg7
F908.8958552530801
sg8
F0.7513612175001113
sg9
F1.0
sg10
F0.27987215532560344
sg11
F1.0
sg12
F100.0
sg13
g14
sg15
F0.19
sg16
F0.3486105914072865
sg17
F0.1067200252580583
sg18
F0.6
sg19
F0.0239956180089397
sg20
F0.4
sg21
F1.0
sg22
g23
ssa(dp38
I1
(dp39
g3
F0.0014950511668912537
sg4
F0.43971937011451356
sg5
F2.3805378612254633
sg6
F50.0
sg7
F848.4445306438582
sg8
F0.26913974493223136
sg9
F1.0
sg10
F0.24143086423436358
sg11
F1.0
sg12
F100.0
sg13
g14
sg15
F0.19
sg16
F0.21326756619169407
sg17
F0.3639723666510565
sg18
F0.6
sg19
F0.03165268876276714
sg20
F0.4
sg21
F1.0
sg22
g23
ssa(dp40
I1
(dp41
g3
F0.0012186100423653102
sg4
F0.33799705611906306
sg5
F2.324191700051827
sg6
F50.0
sg7
F1042.8895603033025
sg8
F0.8084978185063302
sg9
F1.0
sg10
F0.23046723628023635
sg11
F1.0
sg12
F100.0
sg13
g14
sg15
F0.19
sg16
F0.3916602266649988
sg17
F0.225234389383564
sg18
F0.6
sg19
F0.10619132641574153
sg20
F0.4
sg21
F1.0
sg22
g23
ssa(dp42
I1
(dp43
g3
F0.0011664930644811069
sS'k12'
p44
F0.42495189502100594
sg5
F2.3105049827531454
sS'zrS'
p45
F50.0
sS'zrR'
p46
F912.7184640258154
sg8
F0.13671198778034796
sS'res2'
p47
F1.0
sS's0R'
p48
F0.37575453845957096
sS'res1'
p49
F1.0
sS'storageR'
p50
F100.0
sS'gz'
p51
g14
sS's0S'
p52
F0.19
sS'k1'
p53
F0.3226642421385303
sS'stR'
p54
F0.40065144203283964
sS'stS'
p55
F0.6
sS'nR'
p56
F0.20402289066814833
sS'nS'
p57
F0.4
sS'storageS'
p58
F1.0
sS'vz'
p59
g23
ssa(dp60
I1
(dp61
g3
F0.0009679393615394541
sg44
F0.3150537564696531
sg5
F2.463295494331384
sg45
F50.0
sg46
F937.3570401148747
sg8
F0.8166531595430252
sg47
F1.0
sg48
F0.39051290361865904
sg49
F1.0
sg50
F100.0
sg51
g14
sg52
F0.19
sg53
F0.2794359643621446
sg54
F0.2740260667921578
sg55
F0.6
sg56
F0.14920659488684285
sg57
F0.4
sg58
F1.0
sg59
g23
ssa(dp62
I1
(dp63
g3
F0.0015634836437516454
sg44
F0.4027931580344426
sg5
F2.325602694659087
sg45
F50.0
sg46
F577.9248032824694
sg8
F0.6597300334882916
sg47
F1.0
sg48
F0.14817206506264605
sg49
F1.0
sg50
F100.0
sg51
g14
sg52
F0.19
sg53
F0.31695497719583327
sg54
F0.20660702861882277
sg55
F0.6
sg56
F0.01590734989353353
sg57
F0.4
sg58
F1.0
sg59
g23
ssa(dp64
I1
(dp65
g3
F0.0023502454232988586
sg44
F0.4928434472714212
sg5
F2.200569666862194
sg45
F50.0
sg46
F1115.9365141548642
sg8
F0.8399155273994701
sg47
F1.0
sg48
F0.23423263493866164
sg49
F1.0
sg50
F100.0
sg51
g14
sg52
F0.19
sg53
F0.3935512180027081
sg54
F0.14654438316228058
sg55
F0.6
sg56
F0.14750741523948668
sg57
F0.4
sg58
F1.0
sg59
g23
ssa(dp66
I1
(dp67
g3
F0.0008501310962422046
sg44
F0.3379385042546798
sg5
F2.456349926702879
sg45
F50.0
sg46
F1027.2462468462754
sg8
F0.8466041217725704
sg47
F1.0
sg48
F0.3908326753197897
sg49
F1.0
sg50
F100.0
sg51
g14
sg52
F0.19
sg53
F0.3533689045250899
sg54
F0.19978189152291856
sg55
F0.6
sg56
F0.03906982183856222
sg57
F0.4
sg58
F1.0
sg59
g23
ssa(dp68
I1
(dp69
g3
F0.001721156133146347
sg44
F0.3624174398809214
sg5
F2.1799324634826487
sg45
F50.0
sg46
F715.9153355909887
sg8
F0.46353558402432504
sg47
F1.0
sg48
F0.17577651608667272
sg49
F1.0
sg50
F100.0
sg51
g14
sg52
F0.19
sg53
F0.3980729827973178
sg54
F0.3262224950785161
sg55
F0.6
sg56
F0.013297456217572176
sg57
F0.4
sg58
F1.0
sg59
g23
ssa(dp70
I1
(dp71
g3
F0.001401063898347461
sg44
F0.3841859489687126
sg5
F2.2096493397351384
sg45
F50.0
sg46
F656.2796587658345
sg8
F0.8424601164324861
sg47
F1.0
sg48
F0.3593072727166774
sg49
F1.0
sg50
F100.0
sg51
g14
sg52
F0.19
sg53
F0.39795734632738383
sg54
F0.23143906380648566
sg55
F0.6
sg56
F0.0680261000475482
sg57
F0.4
sg58
F1.0
sg59
g23
ssa(dp72
I1
(dp73
g3
F0.0031264214525350727
sg44
F0.41918932324710706
sg5
F2.067518101128311
sg45
F50.0
sg46
F767.019422592226
sg8
F0.1394396639543543
sg47
F1.0
sg48
F0.07678653434668276
sg49
F1.0
sg50
F100.0
sg51
g14
sg52
F0.19
sg53
F0.33404012975944103
sg54
F0.13617988665377442
sg55
F0.6
sg56
F0.0957515767353646
sg57
F0.4
sg58
F1.0
sg59
g23
ssa(dp74
I1
(dp75
g3
F0.0009495115386522776
sg44
F0.41111559621455573
sg5
F2.437459563577339
sg45
F50.0
sg46
F705.3587801231431
sg8
F0.8986735120449694
sg47
F1.0
sg48
F0.2777654341439547
sg49
F1.0
sg50
F100.0
sg51
g14
sg52
F0.19
sg53
F0.39265890605167597
sg54
F0.1703090952691893
sg55
F0.6
sg56
F0.33236333139515206
sg57
F0.4
sg58
F1.0
sg59
g23
ssa(dp76
I1
(dp77
g3
F0.004288381268568818
sg44
F0.3161233026926023
sg5
F1.846766091743954
sg45
F50.0
sg46
F1114.0705817598055
sg8
F0.8532678915381452
sg47
F1.0
sg48
F0.32279218571192486
sg49
F1.0
sg50
F100.0
sg51
g14
sg52
F0.19
sg53
F0.34784142688621766
sg54
F0.15265076862312832
sg55
F0.6
sg56
F0.29041484635629533
sg57
F0.4
sg58
F1.0
sg59
g23
ssa(dp78
I1
(dp79
g3
F0.001173666423860097
sS'k12'
p80
F0.4352723522689824
sg5
F2.4435274007011807
sS'zrS'
p81
F50.0
sS'zrR'
p82
F743.7103960890912
sg8
F0.7489874418080373
sS'res2'
p83
F1.0
sS's0R'
p84
F0.33172419973987066
sS'res1'
p85
F1.0
sS'storageR'
p86
F100.0
sS'gz'
p87
g14
sS's0S'
p88
F0.19
sS'k1'
p89
F0.28571620157288763
sS'stR'
p90
F0.34936367183322625
sS'stS'
p91
F0.6
sS'nR'
p92
F0.022375838897213954
sS'nS'
p93
F0.4
sS'storageS'
p94
F1.0
sS'vz'
p95
g23
ssa(dp96
I1
(dp97
g3
F0.0016456065222236976
sg80
F0.45138036378536767
sg5
F2.3444216211149094
sg81
F50.0
sg82
F501.77406305969635
sg8
F0.632000928051217
sg83
F1.0
sg84
F0.041481390604579095
sg85
F1.0
sg86
F100.0
sg87
g14
sg88
F0.19
sg89
F0.320881871737699
sg90
F0.17421355944473751
sg91
F0.6
sg92
F0.011229104714200955
sg93
F0.4
sg94
F1.0
sg95
g23
ssa(dp98
I1
(dp99
g3
F0.0029696825530681325
sg80
F0.48874616767940116
sg5
F2.029068757013755
sg81
F50.0
sg82
F518.547788371705
sg8
F0.1345131010866809
sg83
F1.0
sg84
F0.12177192183479138
sg85
F1.0
sg86
F100.0
sg87
g14
sg88
F0.19
sg89
F0.33074797347599894
sg90
F0.3632743154428487
sg91
F0.6
sg92
F0.04179773151858247
sg93
F0.4
sg94
F1.0
sg95
g23
ssa(dp100
I1
(dp101
g3
F0.002043602793044004
sg80
F0.43983619603483537
sg5
F2.2461699638026453
sg81
F50.0
sg82
F723.2844885629863
sg8
F0.29891212249986965
sg83
F1.0
sg84
F0.18905472479755112
sg85
F1.0
sg86
F100.0
sg87
g14
sg88
F0.19
sg89
F0.34035889423286547
sg90
F0.3874290910736279
sg91
F0.6
sg92
F0.017236053152685955
sg93
F0.4
sg94
F1.0
sg95
g23
ssa(dp102
I1
(dp103
g3
F0.0008828590901083491
sg80
F0.3717372133894203
sg5
F2.4424463884481424
sg81
F50.0
sg82
F1023.5342863123469
sg8
F0.8938584442750318
sg83
F1.0
sg84
F0.2572749294432563
sg85
F1.0
sg86
F100.0
sg87
g14
sg88
F0.19
sg89
F0.3884224193322482
sg90
F0.15283922279609588
sg91
F0.6
sg92
F0.3406478029759534
sg93
F0.4
sg94
F1.0
sg95
g23
ssa(dp104
I1
(dp105
g3
F0.0009743677106743066
sg80
F0.32995657124106065
sg5
F2.372262855481079
sg81
F50.0
sg82
F657.1439163852111
sg8
F0.37853384018443903
sg83
F1.0
sg84
F0.23516802851538007
sg85
F1.0
sg86
F100.0
sg87
g14
sg88
F0.19
sg89
F0.38823696980152483
sg90
F0.26420270133126733
sg91
F0.6
sg92
F0.09675859493575387
sg93
F0.4
sg94
F1.0
sg95
g23
ssa(dp106
I1
(dp107
g3
F0.0038655291497756883
sg80
F0.38374936076493016
sg5
F1.9068920436333332
sg81
F50.0
sg82
F851.893781754671
sg8
F0.8937595925749159
sg83
F1.0
sg84
F0.2766598370340105
sg85
F1.0
sg86
F100.0
sg87
g14
sg88
F0.19
sg89
F0.28196971582876035
sg90
F0.18614091471189012
sg91
F0.6
sg92
F0.07668606224884807
sg93
F0.4
sg94
F1.0
sg95
g23
ssa(dp108
I1
(dp109
g3
F0.0032506388857966527
sg80
F0.484495186346225
sg5
F1.9875426424286065
sg81
F50.0
sg82
F756.3999363674277
sg8
F0.4519190212524894
sg83
F1.0
sg84
F0.3149088587791798
sg85
F1.0
sg86
F100.0
sg87
g14
sg88
F0.19
sg89
F0.3993009255210347
sg90
F0.332611409309726
sg91
F0.6
sg92
F0.12701443393529452
sg93
F0.4
sg94
F1.0
sg95
g23
ssa(dp110
I1
(dp111
g3
F0.0017527033563170548
sg80
F0.42384399037400583
sg5
F2.263185230626243
sg81
F50.0
sg82
F825.2415723153592
sg8
F0.5896098034672858
sg83
F1.0
sg84
F0.257325185527648
sg85
F1.0
sg86
F100.0
sg87
g14
sg88
F0.19
sg89
F0.26109064594990894
sg90
F0.26258223750038867
sg91
F0.6
sg92
F0.13991728615479795
sg93
F0.4
sg94
F1.0
sg95
g23
ssa(dp112
I1
(dp113
g3
F0.0037841612219906146
sg80
F0.38099658535814035
sg5
F1.910018778201685
sg81
F50.0
sg82
F695.1117410278625
sg8
F0.8279857257178391
sg83
F1.0
sg84
F0.13951990023854452
sg85
F1.0
sg86
F100.0
sg87
g14
sg88
F0.19
sg89
F0.33257293099131924
sg90
F0.13959674975188607
sg91
F0.6
sg92
F0.22176670345493035
sg93
F0.4
sg94
F1.0
sg95
g23
ssa(dp114
I1
(dp115
g3
F0.0008008866301053173
sS'k12'
p116
F0.4018318131193897
sg5
F2.499814756991109
sS'zrS'
p117
F50.0
sS'zrR'
p118
F1035.7131003981503
sg8
F0.8912529128629375
sS'res2'
p119
F1.0
sS's0R'
p120
F0.27773011381094354
sS'res1'
p121
F1.0
sS'storageR'
p122
F100.0
sS'gz'
p123
g14
sS's0S'
p124
F0.19
sS'k1'
p125
F0.35819847000680016
sS'stR'
p126
F0.10353856850824039
sS'stS'
p127
F0.6
sS'nR'
p128
F0.1707944177534887
sS'nS'
p129
F0.4
sS'storageS'
p130
F1.0
sS'vz'
p131
g23
ssa(dp132
I1
(dp133
g3
F0.0027584077185047315
sg116
F0.4000228669577227
sg5
F2.0459497645815716
sg117
F50.0
sg118
F841.243918277412
sg8
F0.3505972188871762
sg119
F1.0
sg120
F0.3330855457529102
sg121
F1.0
sg122
F100.0
sg123
g14
sg124
F0.19
sg125
F0.34702753780292495
sg126
F0.3550856549271656
sg127
F0.6
sg128
F0.10113780704547712
sg129
F0.4
sg130
F1.0
sg131
g23
ssa(dp134
I1
(dp135
g3
F0.0020774473904656534
sg116
F0.49447385760931817
sg5
F2.1662523964241798
sg117
F50.0
sg118
F752.5949508391059
sg8
F0.4582780997314879
sg119
F1.0
sg120
F0.2597139259534685
sg121
F1.0
sg122
F100.0
sg123
g14
sg124
F0.19
sg125
F0.34479988303953335
sg126
F0.3618422122290842
sg127
F0.6
sg128
F0.015366577625019445
sg129
F0.4
sg130
F1.0
sg131
g23
ssa(dp136
I1
(dp137
g3
F0.0021500445943934948
sg116
F0.37272023689341466
sg5
F2.07697753186461
sg117
F50.0
sg118
F691.4127738068037
sg8
F0.20464549659451806
sg119
F1.0
sg120
F0.10755638981382228
sg121
F1.0
sg122
F100.0
sg123
g14
sg124
F0.19
sg125
F0.3633232639360115
sg126
F0.14922414369749035
sg127
F0.6
sg128
F0.1109340974684261
sg129
F0.4
sg130
F1.0
sg131
g23
ssa(dp138
I1
(dp139
g3
F0.0011516536864961758
sg116
F0.4356721623796772
sg5
F2.2878691464605065
sg117
F50.0
sg118
F512.746655206194
sg8
F0.2728219368596658
sg119
F1.0
sg120
F0.2581762847019203
sg121
F1.0
sg122
F100.0
sg123
g14
sg124
F0.19
sg125
F0.29220882376542356
sg126
F0.29557124269349144
sg127
F0.6
sg128
F0.16803456648675005
sg129
F0.4
sg130
F1.0
sg131
g23
ssa(dp140
I1
(dp141
g3
F0.0030750376634015317
sg116
F0.4993816759535141
sg5
F2.058612398899493
sg117
F50.0
sg118
F516.3206134491436
sg8
F0.16500814282331727
sg119
F1.0
sg120
F0.08338326320923524
sg121
F1.0
sg122
F100.0
sg123
g14
sg124
F0.19
sg125
F0.37175869620690477
sg126
F0.16200329655152457
sg127
F0.6
sg128
F0.10874706979076423
sg129
F0.4
sg130
F1.0
sg131
g23
ssa(dp142
I1
(dp143
g3
F0.0019724217845395672
sg116
F0.38403627754998787
sg5
F2.156148229428693
sg117
F50.0
sg118
F826.0363104920816
sg8
F0.8092150582825813
sg119
F1.0
sg120
F0.24543280095089784
sg121
F1.0
sg122
F100.0
sg123
g14
sg124
F0.19
sg125
F0.30808257874764433
sg126
F0.17602218786514456
sg127
F0.6
sg128
F0.057360092872172315
sg129
F0.4
sg130
F1.0
sg131
g23
ssa(dp144
I1
(dp145
g3
F0.0008701677421376892
sg116
F0.42704852157447737
sg5
F2.4910925014357863
sg117
F50.0
sg118
F1168.0192981760629
sg8
F0.8532113627608373
sg119
F1.0
sg120
F0.2566651623530321
sg121
F1.0
sg122
F100.0
sg123
g14
sg124
F0.19
sg125
F0.22866501707032283
sg126
F0.19519437998016828
sg127
F0.6
sg128
F0.17661390619380515
sg129
F0.4
sg130
F1.0
sg131
g23
ssa(dp146
I1
(dp147
g3
F0.0032159832272587053
sg116
F0.4496921223441423
sg5
F1.9846295857339389
sg117
F50.0
sg118
F724.2294974058469
sg8
F0.808794471478883
sg119
F1.0
sg120
F0.3876239380341466
sg121
F1.0
sg122
F100.0
sg123
g14
sg124
F0.19
sg125
F0.2754312253351534
sg126
F0.15425085477912362
sg127
F0.6
sg128
F0.3082919599523149
sg129
F0.4
sg130
F1.0
sg131
g23
ssa(dp148
I1
(dp149
g3
F0.0009609411726692451
sg116
F0.46412394219212383
sg5
F2.4656744740976246
sg117
F50.0
sg118
F995.7376648312743
sg8
F0.8142914334908643
sg119
F1.0
sg120
F0.32331346424098906
sg121
F1.0
sg122
F100.0
sg123
g14
sg124
F0.19
sg125
F0.32270566279447915
sg126
F0.2989086543197451
sg127
F0.6
sg128
F0.2444494690807471
sg129
F0.4
sg130
F1.0
sg131
g23
ssa(dp150
I1
(dp151
g3
F0.001875403247625635
sS'k12'
p152
F0.3629420046607962
sg5
F2.1952688206361484
sS'zrS'
p153
F50.0
sS'zrR'
p154
F744.1023789892895
sg8
F0.43142743154000207
sS'res2'
p155
F1.0
sS's0R'
p156
F0.3583638747538629
sS'res1'
p157
F1.0
sS'storageR'
p158
F100.0
sS'gz'
p159
g14
sS's0S'
p160
F0.19
sS'k1'
p161
F0.3779169521356631
sS'stR'
p162
F0.39654174072713366
sS'stS'
p163
F0.6
sS'nR'
p164
F0.04809220099445606
sS'nS'
p165
F0.4
sS'storageS'
p166
F1.0
sS'vz'
p167
g23
ssa(dp168
I1
(dp169
g3
F0.0027753834358991165
sg152
F0.4945025312556293
sg5
F2.0404544153303266
sg153
F50.0
sg154
F1152.5624996586034
sg8
F0.8251697666303447
sg155
F1.0
sg156
F0.17311331256090048
sg157
F1.0
sg158
F100.0
sg159
g14
sg160
F0.19
sg161
F0.3210052788331331
sg162
F0.14818650729550945
sg163
F0.6
sg164
F0.30860482110371656
sg165
F0.4
sg166
F1.0
sg167
g23
ssa(dp170
I1
(dp171
g3
F0.0022489728261139413
sg152
F0.3305430257371173
sg5
F2.2086859258503475
sg153
F50.0
sg154
F1166.6157502723795
sg8
F0.13215844205414504
sg155
F1.0
sg156
F0.20724303823492995
sg157
F1.0
sg158
F100.0
sg159
g14
sg160
F0.19
sg161
F0.33028296246750144
sg162
F0.4176606811814808
sg163
F0.6
sg164
F0.017901667806201553
sg165
F0.4
sg166
F1.0
sg167
g23
ssa(dp172
I1
(dp173
g3
F0.0022087251909172845
sg152
F0.4738813508327395
sg5
F2.1989960623696976
sg153
F50.0
sg154
F631.1991371891036
sg8
F0.48504530003229285
sg155
F1.0
sg156
F0.26610982078787987
sg157
F1.0
sg158
F100.0
sg159
g14
sg160
F0.19
sg161
F0.3920128539191434
sg162
F0.29163479988007995
sg163
F0.6
sg164
F0.10464273142496751
sg165
F0.4
sg166
F1.0
sg167
g23
ssa(dp174
I1
(dp175
g3
F0.002320744761855774
sg152
F0.4083389604320321
sg5
F2.1462478135517715
sg153
F50.0
sg154
F501.5251656842362
sg8
F0.5518959520001981
sg155
F1.0
sg156
F0.07668389383877355
sg157
F1.0
sg158
F100.0
sg159
g14
sg160
F0.19
sg161
F0.3333992415574112
sg162
F0.19743219612999213
sg163
F0.6
sg164
F0.017069766215290817
sg165
F0.4
sg166
F1.0
sg167
g23
ssa(dp176
I1
(dp177
g3
F0.0028282236458261043
sg152
F0.4002983511109492
sg5
F2.09305915582668
sg153
F50.0
sg154
F842.6585844624186
sg8
F0.8393355293489598
sg155
F1.0
sg156
F0.3807604887751447
sg157
F1.0
sg158
F100.0
sg159
g14
sg160
F0.19
sg161
F0.3098999418017153
sg162
F0.14784544805967423
sg163
F0.6
sg164
F0.26111922110984087
sg165
F0.4
sg166
F1.0
sg167
g23
ssa(dp178
I1
(dp179
g3
F0.002071855525109163
sg152
F0.33424431886524514
sg5
F2.1743111023840394
sg153
F50.0
sg154
F1005.6323791558991
sg8
F0.5063130661301374
sg155
F1.0
sg156
F0.2135186887434422
sg157
F1.0
sg158
F100.0
sg159
g14
sg160
F0.19
sg161
F0.35011855094617755
sg162
F0.22602480043185455
sg163
F0.6
sg164
F0.06807859476239254
sg165
F0.4
sg166
F1.0
sg167
g23
ssa(dp180
I1
(dp181
g3
F0.0014531444825282333
sg152
F0.4295728772773181
sg5
F2.219617808256797
sg153
F50.0
sg154
F630.7092793807797
sg8
F0.2099037400343261
sg155
F1.0
sg156
F0.353744029168553
sg157
F1.0
sg158
F100.0
sg159
g14
sg160
F0.19
sg161
F0.3453901141018846
sg162
F0.394648037453898
sg163
F0.6
sg164
F0.1387439368456918
sg165
F0.4
sg166
F1.0
sg167
g23
ssa(dp182
I1
(dp183
g3
F0.0013512900716850097
sg152
F0.3166228277394177
sg5
F2.325795019116933
sg153
F50.0
sg154
F598.3038097979719
sg8
F0.8033956257483967
sg155
F1.0
sg156
F0.25341571368469673
sg157
F1.0
sg158
F100.0
sg159
g14
sg160
F0.19
sg161
F0.2703275871575899
sg162
F0.2117252386481253
sg163
F0.6
sg164
F0.3674494616769785
sg165
F0.4
sg166
F1.0
sg167
g23
ssa(dp184
I1
(dp185
g3
F0.0035029400820328262
sg152
F0.46769694345912055
sg5
F1.9187543538701843
sg153
F50.0
sg154
F709.1329857814701
sg8
F0.8384131027624971
sg155
F1.0
sg156
F0.28644464997867347
sg157
F1.0
sg158
F100.0
sg159
g14
sg160
F0.19
sg161
F0.3853355154703708
sg162
F0.2438181278122034
sg163
F0.6
sg164
F0.33638201961517183
sg165
F0.4
sg166
F1.0
sg167
g23
ssa(dp186
I1
(dp187
g3
F0.0011948151745048122
sS'k12'
p188
F0.3898569762241174
sg5
F2.4176815961358926
sS'zrS'
p189
F50.0
sS'zrR'
p190
F1162.3872550294864
sg8
F0.889489731263529
sS'res2'
p191
F1.0
sS's0R'
p192
F0.19867633980346505
sS'res1'
p193
F1.0
sS'storageR'
p194
F100.0
sS'gz'
p195
g14
sS's0S'
p196
F0.19
sS'k1'
p197
F0.3075046775466996
sS'stR'
p198
F0.194673560907708
sS'stS'
p199
F0.6
sS'nR'
p200
F0.2415051397893915
sS'nS'
p201
F0.4
sS'storageS'
p202
F1.0
sS'vz'
p203
g23
ssa(dp204
I1
(dp205
g3
F0.0016988302805170516
sg188
F0.30132003387475864
sg5
F2.343827433082555
sg189
F50.0
sg190
F614.9830861089496
sg8
F0.13038641213180463
sg191
F1.0
sg192
F0.021203573290885114
sg193
F1.0
sg194
F100.0
sg195
g14
sg196
F0.19
sg197
F0.2199595868922731
sg198
F0.14856871082367223
sg199
F0.6
sg200
F0.06104447331577356
sg201
F0.4
sg202
F1.0
sg203
g23
ssa(dp206
I1
(dp207
g3
F0.0013341062385906115
sg188
F0.3893003819626695
sg5
F2.282208975065877
sg189
F50.0
sg190
F842.4912407403045
sg8
F0.8980410544241585
sg191
F1.0
sg192
F0.30331898469842133
sg193
F1.0
sg194
F100.0
sg195
g14
sg196
F0.19
sg197
F0.3370055748981846
sg198
F0.2894231235152896
sg199
F0.6
sg200
F0.3861010187641421
sg201
F0.4
sg202
F1.0
sg203
g23
ssa(dp208
I1
(dp209
g3
F0.0013523051248346364
sg188
F0.37959932434744637
sg5
F2.304720208797466
sg189
F50.0
sg190
F934.630236489503
sg8
F0.8359204562134629
sg191
F1.0
sg192
F0.3816483301777782
sg193
F1.0
sg194
F100.0
sg195
g14
sg196
F0.19
sg197
F0.3064796265033897
sg198
F0.1568205679044774
sg199
F0.6
sg200
F0.04728976426542633
sg201
F0.4
sg202
F1.0
sg203
g23
ssa(dp210
I1
(dp211
g3
F0.0009398625915924229
sg188
F0.35522150025323446
sg5
F2.463591670730568
sg189
F50.0
sg190
F737.6049144781193
sg8
F0.8804096789755551
sg191
F1.0
sg192
F0.34873422408468524
sg193
F1.0
sg194
F100.0
sg195
g14
sg196
F0.19
sg197
F0.2723092544896072
sg198
F0.1939777557058605
sg199
F0.6
sg200
F0.1680831006954915
sg201
F0.4
sg202
F1.0
sg203
g23
ssa(dp212
I1
(dp213
g3
F0.0013435389082337458
sg188
F0.36804037078144314
sg5
F2.4569208214729015
sg189
F50.0
sg190
F523.2800716564903
sg8
F0.3109228806369344
sg191
F1.0
sg192
F0.13994208513306505
sg193
F1.0
sg194
F100.0
sg195
g14
sg196
F0.19
sg197
F0.3469458504282502
sg198
F0.3553686480879189
sg199
F0.6
sg200
F0.018083670768946854
sg201
F0.4
sg202
F1.0
sg203
g23
ssa(dp214
I1
(dp215
g3
F0.0016430876847850521
sg188
F0.313854794187273
sg5
F2.384999478232114
sg189
F50.0
sg190
F771.2084043195009
sg8
F0.3532752560443523
sg191
F1.0
sg192
F0.14195127559213985
sg193
F1.0
sg194
F100.0
sg195
g14
sg196
F0.19
sg197
F0.3249126601561253
sg198
F0.22100379422280253
sg199
F0.6
sg200
F0.03294124176377512
sg201
F0.4
sg202
F1.0
sg203
g23
ssa(dp216
I1
(dp217
g3
F0.0010071889233850397
sg188
F0.43920651003176053
sg5
F2.3794583906542828
sg189
F50.0
sg190
F551.4394301307822
sg8
F0.8542897240035336
sg191
F1.0
sg192
F0.37896321379008624
sg193
F1.0
sg194
F100.0
sg195
g14
sg196
F0.19
sg197
F0.3108244874715739
sg198
F0.36068354888535736
sg199
F0.6
sg200
F0.28423392629440825
sg201
F0.4
sg202
F1.0
sg203
g23
ssa(dp218
I1
(dp219
g3
F0.0005631819821829686
sg188
F0.45424318452567086
sg5
F2.488379132147716
sg189
F50.0
sg190
F1117.5007593320524
sg8
F0.268531865898623
sg191
F1.0
sg192
F0.3132415594698141
sg193
F1.0
sg194
F100.0
sg195
g14
sg196
F0.19
sg197
F0.3304668328552807
sg198
F0.34131909302115704
sg199
F0.6
sg200
F0.11013317842857227
sg201
F0.4
sg202
F1.0
sg203
g23
ssa(dp220
I1
(dp221
g3
F0.002411309723325569
sg188
F0.4771738407239607
sg5
F2.184346513079089
sg189
F50.0
sg190
F675.1053268451435
sg8
F0.8164826531054774
sg191
F1.0
sg192
F0.3732433393394847
sg193
F1.0
sg194
F100.0
sg195
g14
sg196
F0.19
sg197
F0.33159811703166386
sg198
F0.17633730563093525
sg199
F0.6
sg200
F0.11282354164844072
sg201
F0.4
sg202
F1.0
sg203
g23
ssa(dp222
I1
(dp223
g3
F0.0022963392313967747
sS'k12'
p224
F0.4694734610338653
sg5
F2.190397556087941
sS'zrS'
p225
F50.0
sS'zrR'
p226
F632.6763517022852
sg8
F0.40544320587163174
sS'res2'
p227
F1.0
sS's0R'
p228
F0.21083157830940233
sS'res1'
p229
F1.0
sS'storageR'
p230
F100.0
sS'gz'
p231
g14
sS's0S'
p232
F0.19
sS'k1'
p233
F0.2306291720547612
sS'stR'
p234
F0.24016478731889715
sS'stS'
p235
F0.6
sS'nR'
p236
F0.10454426261195111
sS'nS'
p237
F0.4
sS'storageS'
p238
F1.0
sS'vz'
p239
g23
ssa(dp240
I1
(dp241
g3
F0.002002831019103193
sg224
F0.4429403788856442
sg5
F2.196523003139998
sg225
F50.0
sg226
F621.9765301616187
sg8
F0.5738661457341984
sg227
F1.0
sg228
F0.22261873606697408
sg229
F1.0
sg230
F100.0
sg231
g14
sg232
F0.19
sg233
F0.22383238753517978
sg234
F0.2324595035498752
sg235
F0.6
sg236
F0.12974543302063957
sg237
F0.4
sg238
F1.0
sg239
g23
ssa(dp242
I1
(dp243
g3
F0.0012034884129424497
sg224
F0.4759341960112545
sg5
F2.358028915176116
sg225
F50.0
sg226
F830.215515900597
sg8
F0.5678158908101295
sg227
F1.0
sg228
F0.14779205589856806
sg229
F1.0
sg230
F100.0
sg231
g14
sg232
F0.19
sg233
F0.2019140901549138
sg234
F0.15521820814032017
sg235
F0.6
sg236
F0.22362462960445584
sg237
F0.4
sg238
F1.0
sg239
g23
ssa(dp244
I1
(dp245
g3
F0.0031430363035069775
sg224
F0.45160441091678216
sg5
F1.9679352307494946
sg225
F50.0
sg226
F652.6361362325922
sg8
F0.26424165170939906
sg227
F1.0
sg228
F0.3992897115517965
sg229
F1.0
sg230
F100.0
sg231
g14
sg232
F0.19
sg233
F0.3164032981854181
sg234
F0.41987816273414447
sg235
F0.6
sg236
F0.1970028689938714
sg237
F0.4
sg238
F1.0
sg239
g23
ssa(dp246
I1
(dp247
g3
F0.0016433425532827847
sg224
F0.46287401277563195
sg5
F2.2901633379177806
sg225
F50.0
sg226
F889.4468210062771
sg8
F0.8876122275759138
sg227
F1.0
sg228
F0.30919158077672837
sg229
F1.0
sg230
F100.0
sg231
g14
sg232
F0.19
sg233
F0.3364439119716378
sg234
F0.16230903438293443
sg235
F0.6
sg236
F0.2438639840649522
sg237
F0.4
sg238
F1.0
sg239
g23
ssa(dp248
I1
(dp249
g3
F0.0032149442003183925
sg224
F0.3581691290136726
sg5
F2.0184999485862085
sg225
F50.0
sg226
F1148.513437033688
sg8
F0.13843715893499048
sg227
F1.0
sg228
F0.3379346223422496
sg229
F1.0
sg230
F100.0
sg231
g14
sg232
F0.19
sg233
F0.39196576096528085
sg234
F0.4953113474864853
sg235
F0.6
sg236
F0.025077435345931508
sg237
F0.4
sg238
F1.0
sg239
g23
ssa(dp250
I1
(dp251
g3
F0.004194086248170199
sg224
F0.3227195702669159
sg5
F2.015831067289409
sg225
F50.0
sg226
F606.9219342661993
sg8
F0.8074767730305147
sg227
F1.0
sg228
F0.11400648870171676
sg229
F1.0
sg230
F100.0
sg231
g14
sg232
F0.19
sg233
F0.23593497332646374
sg234
F0.10458647829696704
sg235
F0.6
sg236
F0.11728604630106355
sg237
F0.4
sg238
F1.0
sg239
g23
ssa(dp252
I1
(dp253
g3
F0.0049203868309233584
sg224
F0.4960497280567926
sg5
F1.8529745428397906
sg225
F50.0
sg226
F518.178664357233
sg8
F0.7865709000581141
sg227
F1.0
sg228
F0.3060825223885592
sg229
F1.0
sg230
F100.0
sg231
g14
sg232
F0.19
sg233
F0.3803883773902407
sg234
F0.22928091002585696
sg235
F0.6
sg236
F0.3322717854254625
sg237
F0.4
sg238
F1.0
sg239
g23
ssa(dp254
I1
(dp255
g3
F0.0022674389788528886
sg224
F0.3421501947835191
sg5
F2.1679567483652193
sg225
F50.0
sg226
F571.1518785726051
sg8
F0.8657691491654902
sg227
F1.0
sg228
F0.3064732919112162
sg229
F1.0
sg230
F100.0
sg231
g14
sg232
F0.19
sg233
F0.3453242336830108
sg234
F0.17023111814123804
sg235
F0.6
sg236
F0.3742905040594666
sg237
F0.4
sg238
F1.0
sg239
g23
ssa(dp256
I1
(dp257
g3
F0.0014197592108572707
sg224
F0.38730495134904486
sg5
F2.296719216963059
sg225
F50.0
sg226
F793.0678264152649
sg8
F0.7698032261002806
sg227
F1.0
sg228
F0.12555347015986293
sg229
F1.0
sg230
F100.0
sg231
g14
sg232
F0.19
sg233
F0.23631557685388194
sg234
F0.12229693778019107
sg235
F0.6
sg236
F0.3376713155934924
sg237
F0.4
sg238
F1.0
sg239
g23
ssa(dp258
I1
(dp259
g3
F0.0019364545899351422
sS'k12'
p260
F0.4673787084897473
sg5
F2.1843571773025086
sS'zrS'
p261
F50.0
sS'zrR'
p262
F772.3775263126408
sg8
F0.13658141992554135
sS'res2'
p263
F1.0
sS's0R'
p264
F0.16417701972300158
sS'res1'
p265
F1.0
sS'storageR'
p266
F100.0
sS'gz'
p267
g14
sS's0S'
p268
F0.19
sS'k1'
p269
F0.2390347685909434
sS'stR'
p270
F0.2567848572004017
sS'stS'
p271
F0.6
sS'nR'
p272
F0.06525697368576232
sS'nS'
p273
F0.4
sS'storageS'
p274
F1.0
sS'vz'
p275
g23
ssa(dp276
I1
(dp277
g3
F0.002942152228642285
sg260
F0.44883132746272036
sg5
F2.053203462826805
sg261
F50.0
sg262
F548.2188003683177
sg8
F0.8698451687044614
sg263
F1.0
sg264
F0.19440794779247797
sg265
F1.0
sg266
F100.0
sg267
g14
sg268
F0.19
sg269
F0.3974395088866363
sg270
F0.1843545878441729
sg271
F0.6
sg272
F0.062209735538705735
sg273
F0.4
sg274
F1.0
sg275
g23
ssa(dp278
I1
(dp279
g3
F0.004760870948143521
sg260
F0.3469745003602699
sg5
F1.8459089403183133
sg261
F50.0
sg262
F683.3709550383865
sg8
F0.1635182554589517
sg263
F1.0
sg264
F0.12714551448093175
sg265
F1.0
sg266
F100.0
sg267
g14
sg268
F0.19
sg269
F0.3282398797605066
sg270
F0.2498292270695135
sg271
F0.6
sg272
F0.0457908771039699
sg273
F0.4
sg274
F1.0
sg275
g23
ssa(dp280
I1
(dp281
g3
F0.0036247465493398465
sg260
F0.4465519600306431
sg5
F1.9441011097641607
sg261
F50.0
sg262
F1059.818063279324
sg8
F0.8509840236280836
sg263
F1.0
sg264
F0.28523636214584347
sg265
F1.0
sg266
F100.0
sg267
g14
sg268
F0.19
sg269
F0.3471164541769579
sg270
F0.2630073621384941
sg271
F0.6
sg272
F0.21257059938537023
sg273
F0.4
sg274
F1.0
sg275
g23
ssa(dp282
I1
(dp283
g3
F0.002448995254378486
sg260
F0.3918018946184433
sg5
F2.0261267830286673
sg261
F50.0
sg262
F619.768966752903
sg8
F0.8792040276569606
sg263
F1.0
sg264
F0.11920120566453529
sg265
F1.0
sg266
F100.0
sg267
g14
sg268
F0.19
sg269
F0.367385239001613
sg270
F0.12142329738208808
sg271
F0.6
sg272
F0.09349807103137996
sg273
F0.4
sg274
F1.0
sg275
g23
ssa(dp284
I1
(dp285
g3
F0.0016494964909539288
sg260
F0.49445504958602765
sg5
F2.2063643142533413
sg261
F50.0
sg262
F629.7234848407642
sg8
F0.4124080746919708
sg263
F1.0
sg264
F0.2289097537082745
sg265
F1.0
sg266
F100.0
sg267
g14
sg268
F0.19
sg269
F0.26402446810832697
sg270
F0.24411864173498438
sg271
F0.6
sg272
F0.15320871280199586
sg273
F0.4
sg274
F1.0
sg275
g23
ssa(dp286
I1
(dp287
g3
F0.0017020758227451777
sg260
F0.4083396968508985
sg5
F2.2157289715007376
sg261
F50.0
sg262
F867.0134100207724
sg8
F0.4729000418562087
sg263
F1.0
sg264
F0.31296666688674213
sg265
F1.0
sg266
F100.0
sg267
g14
sg268
F0.19
sg269
F0.28591568469019274
sg270
F0.3169805584260216
sg271
F0.6
sg272
F0.30676557030084506
sg273
F0.4
sg274
F1.0
sg275
g23
ssa(dp288
I1
(dp289
g3
F0.003004194072895163
sg260
F0.3648793234909189
sg5
F2.1034733414312137
sg261
F50.0
sg262
F581.8140765829129
sg8
F0.834611519904883
sg263
F1.0
sg264
F0.294780420195996
sg265
F1.0
sg266
F100.0
sg267
g14
sg268
F0.19
sg269
F0.35643400264633235
sg270
F0.22531744357231664
sg271
F0.6
sg272
F0.09962383332961838
sg273
F0.4
sg274
F1.0
sg275
g23
ssa(dp290
I1
(dp291
g3
F0.002769496459815198
sg260
F0.44663768723325925
sg5
F2.170798538804574
sg261
F50.0
sg262
F828.9308779725925
sg8
F0.12271013860832465
sg263
F1.0
sg264
F0.35618128612737515
sg265
F1.0
sg266
F100.0
sg267
g14
sg268
F0.19
sg269
F0.3317685005998935
sg270
F0.7298781736038853
sg271
F0.6
sg272
F0.016888617236327445
sg273
F0.4
sg274
F1.0
sg275
g23
ssa(dp292
I1
(dp293
g3
F0.0022012240801899488
sg260
F0.4192832546943161
sg5
F2.028829788261261
sg261
F50.0
sg262
F587.4110759278936
sg8
F0.3738114991730388
sg263
F1.0
sg264
F0.2788362757938398
sg265
F1.0
sg266
F100.0
sg267
g14
sg268
F0.19
sg269
F0.3400695645598928
sg270
F0.313146892219927
sg271
F0.6
sg272
F0.09718696006349711
sg273
F0.4
sg274
F1.0
sg275
g23
ssa(dp294
I1
(dp295
g3
F0.001399431818003265
sS'k12'
p296
F0.3387242978109614
sg5
F2.3783927096133017
sS'zrS'
p297
F50.0
sS'zrR'
p298
F992.1612788529121
sg8
F0.20968566424539478
sS'res2'
p299
F1.0
sS's0R'
p300
F0.08943597398926105
sS'res1'
p301
F1.0
sS'storageR'
p302
F100.0
sS'gz'
p303
g14
sS's0S'
p304
F0.19
sS'k1'
p305
F0.20828270528724732
sS'stR'
p306
F0.234584336383905
sS'stS'
p307
F0.6
sS'nR'
p308
F0.02575601820536396
sS'nS'
p309
F0.4
sS'storageS'
p310
F1.0
sS'vz'
p311
g23
ssa(dp312
I1
(dp313
g3
F0.002223363999298141
sg296
F0.4735660982296621
sg5
F2.2038311741973065
sg297
F50.0
sg298
F1007.341740895981
sg8
F0.7385584915859446
sg299
F1.0
sg300
F0.3740865215210149
sg301
F1.0
sg302
F100.0
sg303
g14
sg304
F0.19
sg305
F0.23472256149043458
sg306
F0.3815168968252828
sg307
F0.6
sg308
F0.08755804446008499
sg309
F0.4
sg310
F1.0
sg311
g23
ssa(dp314
I1
(dp315
g3
F0.0017533375183329339
sg296
F0.36580479225568496
sg5
F2.240431957707599
sg297
F50.0
sg298
F1132.9717347501319
sg8
F0.8451327155501503
sg299
F1.0
sg300
F0.22605430474388122
sg301
F1.0
sg302
F100.0
sg303
g14
sg304
F0.19
sg305
F0.3475771901031256
sg306
F0.16219365958378573
sg307
F0.6
sg308
F0.01761602592261788
sg309
F0.4
sg310
F1.0
sg311
g23
ssa(dp316
I1
(dp317
g3
F0.0018182773087955643
sg296
F0.42606527384288706
sg5
F2.3193342082741313
sg297
F50.0
sg298
F916.6829742863056
sg8
F0.5359601550625289
sg299
F1.0
sg300
F0.05538224356397903
sg301
F1.0
sg302
F100.0
sg303
g14
sg304
F0.19
sg305
F0.2435540129448348
sg306
F0.17116392164359456
sg307
F0.6
sg308
F0.010739833575466465
sg309
F0.4
sg310
F1.0
sg311
g23
ssa(dp318
I1
(dp319
g3
F0.003573740918638029
sg296
F0.4794359452199876
sg5
F2.0473453115924065
sg297
F50.0
sg298
F1122.7207853637083
sg8
F0.1512261294725593
sg299
F1.0
sg300
F0.20885493806722552
sg301
F1.0
sg302
F100.0
sg303
g14
sg304
F0.19
sg305
F0.2598947806885865
sg306
F0.21853440666451596
sg307
F0.6
sg308
F0.37868913794117354
sg309
F0.4
sg310
F1.0
sg311
g23
ssa(dp320
I1
(dp321
g3
F0.0010941711921658975
sg296
F0.3370573051144953
sg5
F2.3576083656533275
sg297
F50.0
sg298
F754.8008938980058
sg8
F0.8575910349946484
sg299
F1.0
sg300
F0.35137002694412733
sg301
F1.0
sg302
F100.0
sg303
g14
sg304
F0.19
sg305
F0.3220504048174993
sg306
F0.35008996911742885
sg307
F0.6
sg308
F0.13942359880085597
sg309
F0.4
sg310
F1.0
sg311
g23
ssa(dp322
I1
(dp323
g3
F0.001657698098808618
sg296
F0.30550956945559754
sg5
F2.3544355483764057
sg297
F50.0
sg298
F1036.3475552470527
sg8
F0.20995924528292892
sg299
F1.0
sg300
F0.37866340675666943
sg301
F1.0
sg302
F100.0
sg303
g14
sg304
F0.19
sg305
F0.2549425270237793
sg306
F0.39168935083485745
sg307
F0.6
sg308
F0.22021030415187995
sg309
F0.4
sg310
F1.0
sg311
g23
ssa(dp324
I1
(dp325
g3
F0.003979110167402343
sg296
F0.48412924495621673
sg5
F1.8479241355273548
sg297
F50.0
sg298
F789.3685742141145
sg8
F0.8596187443170943
sg299
F1.0
sg300
F0.1272075797860813
sg301
F1.0
sg302
F100.0
sg303
g14
sg304
F0.19
sg305
F0.2754756248652913
sg306
F0.10883491919113358
sg307
F0.6
sg308
F0.1625599890378521
sg309
F0.4
sg310
F1.0
sg311
g23
ssa(dp326
I1
(dp327
g3
F0.0023758975961652587
sg296
F0.441278180662114
sg5
F2.061029780867537
sg297
F50.0
sg298
F1082.0954231360051
sg8
F0.7885791024209204
sg299
F1.0
sg300
F0.33602336380904
sg301
F1.0
sg302
F100.0
sg303
g14
sg304
F0.19
sg305
F0.26875981861605824
sg306
F0.37064373417832297
sg307
F0.6
sg308
F0.011258017870853775
sg309
F0.4
sg310
F1.0
sg311
g23
ssa(dp328
I1
(dp329
g3
F0.002029746129496984
sg296
F0.35573466100157386
sg5
F2.153300061411917
sg297
F50.0
sg298
F811.2029567723184
sg8
F0.8337448893156958
sg299
F1.0
sg300
F0.2724806912688595
sg301
F1.0
sg302
F100.0
sg303
g14
sg304
F0.19
sg305
F0.3953070303953476
sg306
F0.17150417480342695
sg307
F0.6
sg308
F0.017819425173093123
sg309
F0.4
sg310
F1.0
sg311
g23
ssa(dp330
I1
(dp331
g3
F0.0018099589567259484
sS'k12'
p332
F0.49203913738155375
sg5
F2.266738354108549
sS'zrS'
p333
F50.0
sS'zrR'
p334
F620.7037244273474
sg8
F0.666477027604972
sS'res2'
p335
F1.0
sS's0R'
p336
F0.32295079519365494
sS'res1'
p337
F1.0
sS'storageR'
p338
F100.0
sS'gz'
p339
g14
sS's0S'
p340
F0.19
sS'k1'
p341
F0.23538802488065513
sS'stR'
p342
F0.3259999169172957
sS'stS'
p343
F0.6
sS'nR'
p344
F0.36799544047815785
sS'nS'
p345
F0.4
sS'storageS'
p346
F1.0
sS'vz'
p347
g23
ssa(dp348
I1
(dp349
g3
F0.0028114056973409774
sg332
F0.4975795440915144
sg5
F1.994600188252475
sg333
F50.0
sg334
F1195.7986350887718
sg8
F0.576857332110991
sg335
F1.0
sg336
F0.09732764968592966
sg337
F1.0
sg338
F100.0
sg339
g14
sg340
F0.19
sg341
F0.35439153881180896
sg342
F0.11891908476376152
sg343
F0.6
sg344
F0.035687158732891466
sg345
F0.4
sg346
F1.0
sg347
g23
ssa(dp350
I1
(dp351
g3
F0.0007867571091008009
sg332
F0.3629948636714804
sg5
F2.466857353075188
sg333
F50.0
sg334
F658.1160878281974
sg8
F0.2753271049172549
sg335
F1.0
sg336
F0.3011259691162693
sg337
F1.0
sg338
F100.0
sg339
g14
sg340
F0.19
sg341
F0.33464277009127935
sg342
F0.49936679884468804
sg343
F0.6
sg344
F0.0235191454247552
sg345
F0.4
sg346
F1.0
sg347
g23
ssa(dp352
I1
(dp353
g3
F0.0009423745392331789
sg332
F0.3909088473662808
sg5
F2.46698994674959
sg333
F50.0
sg334
F637.3342788132899
sg8
F0.4525984773572387
sg335
F1.0
sg336
F0.11912122047374041
sg337
F1.0
sg338
F100.0
sg339
g14
sg340
F0.19
sg341
F0.2801693987839039
sg342
F0.19528640323528013
sg343
F0.6
sg344
F0.022141988695158456
sg345
F0.4
sg346
F1.0
sg347
g23
ssa(dp354
I1
(dp355
g3
F0.001405746947413782
sg332
F0.3331353461530543
sg5
F2.3054498250027082
sg333
F50.0
sg334
F1101.15671917998
sg8
F0.804215748707011
sg335
F1.0
sg336
F0.33900702069329347
sg337
F1.0
sg338
F100.0
sg339
g14
sg340
F0.19
sg341
F0.2517746924715883
sg342
F0.10178707877000007
sg343
F0.6
sg344
F0.014373584758166445
sg345
F0.4
sg346
F1.0
sg347
g23
ssa(dp356
I1
(dp357
g3
F0.0010711217375851162
sg332
F0.447756630249171
sg5
F2.442532927527867
sg333
F50.0
sg334
F554.3625043541001
sg8
F0.8990956187508046
sg335
F1.0
sg336
F0.1952873582652146
sg337
F1.0
sg338
F100.0
sg339
g14
sg340
F0.19
sg341
F0.39765405212461785
sg342
F0.16529655733219678
sg343
F0.6
sg344
F0.07096869288078256
sg345
F0.4
sg346
F1.0
sg347
g23
ssa(dp358
I1
(dp359
g3
F0.0022379818214605047
sg332
F0.33357162331627904
sg5
F2.212522463520591
sg333
F50.0
sg334
F569.0257424834764
sg8
F0.8720057951690401
sg335
F1.0
sg336
F0.2074134546185753
sg337
F1.0
sg338
F100.0
sg339
g14
sg340
F0.19
sg341
F0.2980795554000563
sg342
F0.20316114244048375
sg343
F0.6
sg344
F0.11532273777633062
sg345
F0.4
sg346
F1.0
sg347
g23
ssa(dp360
I1
(dp361
g3
F0.0023188245647382966
sg332
F0.3456381327456973
sg5
F2.031435652932403
sg333
F50.0
sg334
F1184.0192026379978
sg8
F0.6535896787338451
sg335
F1.0
sg336
F0.3571066000793991
sg337
F1.0
sg338
F100.0
sg339
g14
sg340
F0.19
sg341
F0.3691997883289509
sg342
F0.35910981311691015
sg343
F0.6
sg344
F0.20989691341406594
sg345
F0.4
sg346
F1.0
sg347
g23
ssa(dp362
I1
(dp363
g3
F0.0022092523504610153
sg332
F0.49760633568383683
sg5
F2.169361146611231
sg333
F50.0
sg334
F637.9262992128413
sg8
F0.8489761034068927
sg335
F1.0
sg336
F0.2599959162088602
sg337
F1.0
sg338
F100.0
sg339
g14
sg340
F0.19
sg341
F0.3531463300639833
sg342
F0.23808650382506072
sg343
F0.6
sg344
F0.21529175265387246
sg345
F0.4
sg346
F1.0
sg347
g23
ssa(dp364
I1
(dp365
g3
F0.0016381809824037097
sg332
F0.3304947463498963
sg5
F2.237336493807076
sg333
F50.0
sg334
F880.5300284536335
sg8
F0.4230777020224562
sg335
F1.0
sg336
F0.0988992849615257
sg337
F1.0
sg338
F100.0
sg339
g14
sg340
F0.19
sg341
F0.2354742146425494
sg342
F0.162665488134415
sg343
F0.6
sg344
F0.031976250979834475
sg345
F0.4
sg346
F1.0
sg347
g23
ssa(dp366
I1
(dp367
g3
F0.002259722367857019
sS'k12'
p368
F0.49808368258983227
sg5
F2.279803341833702
sS'zrS'
p369
F50.0
sS'zrR'
p370
F574.17121958705
sg8
F0.36076606952791246
sS'res2'
p371
F1.0
sS's0R'
p372
F0.34305238289988416
sS'res1'
p373
F1.0
sS'storageR'
p374
F100.0
sS'gz'
p375
g14
sS's0S'
p376
F0.19
sS'k1'
p377
F0.3111642204730898
sS'stR'
p378
F0.4319250094750171
sS'stS'
p379
F0.6
sS'nR'
p380
F0.03992531533100688
sS'nS'
p381
F0.4
sS'storageS'
p382
F1.0
sS'vz'
p383
g23
ssa(dp384
I1
(dp385
g3
F0.0048061118047961204
sg368
F0.4502662559233187
sg5
F1.8237011463580672
sg369
F50.0
sg370
F786.0032929390783
sg8
F0.24434822245700138
sg371
F1.0
sg372
F0.29874814723723747
sg373
F1.0
sg374
F100.0
sg375
g14
sg376
F0.19
sg377
F0.3291962130603201
sg378
F0.6467613779531598
sg379
F0.6
sg380
F0.011530504851195287
sg381
F0.4
sg382
F1.0
sg383
g23
ssa(dp386
I1
(dp387
g3
F0.0022462580361180067
sg368
F0.4750911459463226
sg5
F2.134687592669122
sg369
F50.0
sg370
F815.4229280205104
sg8
F0.15951542776111857
sg371
F1.0
sg372
F0.22377812971771244
sg373
F1.0
sg374
F100.0
sg375
g14
sg376
F0.19
sg377
F0.3127411885796693
sg378
F0.2767831105888584
sg379
F0.6
sg380
F0.1090786788236694
sg381
F0.4
sg382
F1.0
sg383
g23
ssa(dp388
I1
(dp389
g3
F0.001772910189185761
sg368
F0.3836833066011432
sg5
F2.300661533415348
sg369
F50.0
sg370
F552.0682849804011
sg8
F0.30844452242014464
sg371
F1.0
sg372
F0.3104003421406302
sg373
F1.0
sg374
F100.0
sg375
g14
sg376
F0.19
sg377
F0.26229637336793993
sg378
F0.5243458447615839
sg379
F0.6
sg380
F0.01950465874667197
sg381
F0.4
sg382
F1.0
sg383
g23
ssa(dp390
I1
(dp391
g3
F0.0010564290201959966
sg368
F0.3801349990219889
sg5
F2.434190686066804
sg369
F50.0
sg370
F528.678214298828
sg8
F0.6574419773787257
sg371
F1.0
sg372
F0.3577804309865036
sg373
F1.0
sg374
F100.0
sg375
g14
sg376
F0.19
sg377
F0.35278464718758257
sg378
F0.3835129394649458
sg379
F0.6
sg380
F0.03863543672900047
sg381
F0.4
sg382
F1.0
sg383
g23
ssa(dp392
I1
(dp393
g3
F0.0022744351718360896
sg368
F0.38296027227689144
sg5
F2.2385853753297082
sg369
F50.0
sg370
F512.8188742707398
sg8
F0.22268102458539546
sg371
F1.0
sg372
F0.24486848295754238
sg373
F1.0
sg374
F100.0
sg375
g14
sg376
F0.19
sg377
F0.20957599570488222
sg378
F0.7453493922293712
sg379
F0.6
sg380
F0.011875593549160637
sg381
F0.4
sg382
F1.0
sg383
g23
ssa(dp394
I1
(dp395
g3
F0.003984895800358628
sg368
F0.3774526017865914
sg5
F1.8992704748644191
sg369
F50.0
sg370
F779.341774946502
sg8
F0.6910954304166655
sg371
F1.0
sg372
F0.24614829611985423
sg373
F1.0
sg374
F100.0
sg375
g14
sg376
F0.19
sg377
F0.27582735303012973
sg378
F0.3134743245074759
sg379
F0.6
sg380
F0.011835197670407407
sg381
F0.4
sg382
F1.0
sg383
g23
ssa(dp396
I1
(dp397
g3
F0.002656544605165823
sg368
F0.3987876227306857
sg5
F2.1152257617452013
sg369
F50.0
sg370
F753.6428198463823
sg8
F0.8712761113383437
sg371
F1.0
sg372
F0.3940271879178159
sg373
F1.0
sg374
F100.0
sg375
g14
sg376
F0.19
sg377
F0.3875617609052338
sg378
F0.2356201746953384
sg379
F0.6
sg380
F0.014042034801582181
sg381
F0.4
sg382
F1.0
sg383
g23
ssa(dp398
I1
(dp399
g3
F0.0016170163698081429
sg368
F0.40059416942228815
sg5
F2.3203342133062015
sg369
F50.0
sg370
F1102.868742333163
sg8
F0.8492558531751752
sg371
F1.0
sg372
F0.29759132165391633
sg373
F1.0
sg374
F100.0
sg375
g14
sg376
F0.19
sg377
F0.20611404146753493
sg378
F0.2329049344540085
sg379
F0.6
sg380
F0.05236820008736902
sg381
F0.4
sg382
F1.0
sg383
g23
ssa(dp400
I1
(dp401
g3
F0.0031298591888513586
sg368
F0.3839362013317059
sg5
F2.0834249283872572
sg369
F50.0
sg370
F1100.6978086749893
sg8
F0.8579061368006952
sg371
F1.0
sg372
F0.3955634786664013
sg373
F1.0
sg374
F100.0
sg375
g14
sg376
F0.19
sg377
F0.39684028277900163
sg378
F0.35987848816393664
sg379
F0.6
sg380
F0.08359032418270332
sg381
F0.4
sg382
F1.0
sg383
g23
ssa(dp402
I1
(dp403
g3
F0.0014745881334464889
sS'k12'
p404
F0.3984055807914392
sg5
F2.201414384687065
sS'zrS'
p405
F50.0
sS'zrR'
p406
F693.3764845899517
sg8
F0.8692089983827905
sS'res2'
p407
F1.0
sS's0R'
p408
F0.31764979713981045
sS'res1'
p409
F1.0
sS'storageR'
p410
F100.0
sS'gz'
p411
g14
sS's0S'
p412
F0.19
sS'k1'
p413
F0.3579176339267689
sS'stR'
p414
F0.29542013977560855
sS'stS'
p415
F0.6
sS'nR'
p416
F0.03927651186715197
sS'nS'
p417
F0.4
sS'storageS'
p418
F1.0
sS'vz'
p419
g23
ssa(dp420
I1
(dp421
g3
F0.003816072943361131
sg404
F0.33128369478520575
sg5
F1.9759890514487355
sg405
F50.0
sg406
F530.9163153239249
sg8
F0.2991361932663442
sg407
F1.0
sg408
F0.05879169175493529
sg409
F1.0
sg410
F100.0
sg411
g14
sg412
F0.19
sg413
F0.3330300047976563
sg414
F0.3878765618119483
sg415
F0.6
sg416
F0.013757727836622262
sg417
F0.4
sg418
F1.0
sg419
g23
ssa(dp422
I1
(dp423
g3
F0.0014479364369342188
sg404
F0.3608334359276346
sg5
F2.226769015534928
sg405
F50.0
sg406
F946.0923792578508
sg8
F0.5741079521699954
sg407
F1.0
sg408
F0.179892210910612
sg409
F1.0
sg410
F100.0
sg411
g14
sg412
F0.19
sg413
F0.3469713160953186
sg414
F0.19600600400812385
sg415
F0.6
sg416
F0.08259748053938694
sg417
F0.4
sg418
F1.0
sg419
g23
ssa(dp424
I1
(dp425
g3
F0.0019399850309630392
sg404
F0.32516610696575965
sg5
F2.1528003927752195
sg405
F50.0
sg406
F691.8147328794012
sg8
F0.8378147587761162
sg407
F1.0
sg408
F0.35926427438905706
sg409
F1.0
sg410
F100.0
sg411
g14
sg412
F0.19
sg413
F0.37583692126742935
sg414
F0.27124280452927096
sg415
F0.6
sg416
F0.052983474164267054
sg417
F0.4
sg418
F1.0
sg419
g23
ssa(dp426
I1
(dp427
g3
F0.0019677279664464587
sg404
F0.46979386491850267
sg5
F2.1551142188997643
sg405
F50.0
sg406
F616.5772624477687
sg8
F0.8922054611199102
sg407
F1.0
sg408
F0.30237473262981124
sg409
F1.0
sg410
F100.0
sg411
g14
sg412
F0.19
sg413
F0.3447375718338936
sg414
F0.2384318178993753
sg415
F0.6
sg416
F0.20904323297255495
sg417
F0.4
sg418
F1.0
sg419
g23
ssa(dp428
I1
(dp429
g3
F0.0025016379082202648
sg404
F0.3027269479913639
sg5
F2.0338923085197336
sg405
F50.0
sg406
F570.3014804042788
sg8
F0.18463439817592545
sg407
F1.0
sg408
F0.2794058726843405
sg409
F1.0
sg410
F100.0
sg411
g14
sg412
F0.19
sg413
F0.2982400533903024
sg414
F0.3013319144859639
sg415
F0.6
sg416
F0.3098294894795905
sg417
F0.4
sg418
F1.0
sg419
g23
ssa(dp430
I1
(dp431
g3
F0.002992543137724166
sg404
F0.40113157197691474
sg5
F1.9963915687586087
sg405
F50.0
sg406
F1165.7233702320686
sg8
F0.7602371290589424
sg407
F1.0
sg408
F0.2765915745739355
sg409
F1.0
sg410
F100.0
sg411
g14
sg412
F0.19
sg413
F0.3634265023415776
sg414
F0.11011725621650391
sg415
F0.6
sg416
F0.27628554453497256
sg417
F0.4
sg418
F1.0
sg419
g23
ssa(dp432
I1
(dp433
g3
F0.003595366632428331
sg404
F0.3854294580648241
sg5
F1.8999868604769423
sg405
F50.0
sg406
F933.1180261293961
sg8
F0.6419147398648813
sg407
F1.0
sg408
F0.22049937349178947
sg409
F1.0
sg410
F100.0
sg411
g14
sg412
F0.19
sg413
F0.3483694689096227
sg414
F0.22252210009747586
sg415
F0.6
sg416
F0.2594086734153662
sg417
F0.4
sg418
F1.0
sg419
g23
ssa(dp434
I1
(dp435
g3
F0.004156686568820305
sg404
F0.4424719319934032
sg5
F1.989972526277037
sg405
F50.0
sg406
F872.9877094319226
sg8
F0.12454731417080787
sg407
F1.0
sg408
F0.19688481943938965
sg409
F1.0
sg410
F100.0
sg411
g14
sg412
F0.19
sg413
F0.22867084336818366
sg414
F0.21522342255168114
sg415
F0.6
sg416
F0.30353758141891685
sg417
F0.4
sg418
F1.0
sg419
g23
ssa(dp436
I1
(dp437
g3
F0.001903858871896712
sg404
F0.4328332396544369
sg5
F2.3699037487787313
sg405
F50.0
sg406
F1005.199076859567
sg8
F0.13675764071084986
sg407
F1.0
sg408
F0.322181347040019
sg409
F1.0
sg410
F100.0
sg411
g14
sg412
F0.19
sg413
F0.213562516992288
sg414
F0.5289953269065393
sg415
F0.6
sg416
F0.023511019740423904
sg417
F0.4
sg418
F1.0
sg419
g23
ssa(dp438
I1
(dp439
g3
F0.0024024086802614153
sS'k12'
p440
F0.4120883118633637
sg5
F2.1397253845579263
sS'zrS'
p441
F50.0
sS'zrR'
p442
F805.6966575531956
sg8
F0.3298006881271636
sS'res2'
p443
F1.0
sS's0R'
p444
F0.31501442922381123
sS'res1'
p445
F1.0
sS'storageR'
p446
F100.0
sS'gz'
p447
g14
sS's0S'
p448
F0.19
sS'k1'
p449
F0.2906808540982467
sS'stR'
p450
F0.33903725922094125
sS'stS'
p451
F0.6
sS'nR'
p452
F0.1325128937130766
sS'nS'
p453
F0.4
sS'storageS'
p454
F1.0
sS'vz'
p455
g23
ssa(dp456
I1
(dp457
g3
F0.0024777078787180658
sg440
F0.4648852758491618
sg5
F2.0922875037593043
sg441
F50.0
sg442
F1094.847872021729
sg8
F0.8807869989791091
sg443
F1.0
sg444
F0.364452514082245
sg445
F1.0
sg446
F100.0
sg447
g14
sg448
F0.19
sg449
F0.2520855893872331
sg450
F0.19877471517008233
sg451
F0.6
sg452
F0.21732140606763548
sg453
F0.4
sg454
F1.0
sg455
g23
ssa(dp458
I1
(dp459
g3
F0.0023387636658408996
sg440
F0.41693798426527945
sg5
F2.1561349214656134
sg441
F50.0
sg442
F933.0207514449734
sg8
F0.6968979717609336
sg443
F1.0
sg444
F0.26586324555360147
sg445
F1.0
sg446
F100.0
sg447
g14
sg448
F0.19
sg449
F0.2901246440784591
sg450
F0.2864154286393732
sg451
F0.6
sg452
F0.03386708396863099
sg453
F0.4
sg454
F1.0
sg455
g23
ssa(dp460
I1
(dp461
g3
F0.005380842538143452
sg440
F0.49631345723863807
sg5
F1.827927438389188
sg441
F50.0
sg442
F1088.4141972766415
sg8
F0.8341567487519009
sg443
F1.0
sg444
F0.24374783587787163
sg445
F1.0
sg446
F100.0
sg447
g14
sg448
F0.19
sg449
F0.3930738970914296
sg450
F0.12003196155133972
sg451
F0.6
sg452
F0.20304413388658196
sg453
F0.4
sg454
F1.0
sg455
g23
ssa(dp462
I1
(dp463
g3
F0.0017741705003095308
sg440
F0.4671836776223119
sg5
F2.2908526672051774
sg441
F50.0
sg442
F620.761242573144
sg8
F0.8476557924317316
sg443
F1.0
sg444
F0.3642363783796498
sg445
F1.0
sg446
F100.0
sg447
g14
sg448
F0.19
sg449
F0.3009371032461221
sg450
F0.2289633579545428
sg451
F0.6
sg452
F0.1963831492339396
sg453
F0.4
sg454
F1.0
sg455
g23
ssa(dp464
I1
(dp465
g3
F0.0014768211147952596
sg440
F0.44488686031522806
sg5
F2.3225501940672295
sg441
F50.0
sg442
F1005.595024295297
sg8
F0.8901837908346163
sg443
F1.0
sg444
F0.31357735374181384
sg445
F1.0
sg446
F100.0
sg447
g14
sg448
F0.19
sg449
F0.26115571573364277
sg450
F0.11584404575542716
sg451
F0.6
sg452
F0.15672037980491604
sg453
F0.4
sg454
F1.0
sg455
g23
ssa(dp466
I1
(dp467
g3
F0.0009719449730742761
sg440
F0.38661869529723025
sg5
F2.448454089793192
sg441
F50.0
sg442
F817.2209124037599
sg8
F0.8887400446645958
sg443
F1.0
sg444
F0.3452071236867556
sg445
F1.0
sg446
F100.0
sg447
g14
sg448
F0.19
sg449
F0.2723575728331869
sg450
F0.32832531044707947
sg451
F0.6
sg452
F0.20938730982818013
sg453
F0.4
sg454
F1.0
sg455
g23
ssa(dp468
I1
(dp469
g3
F0.002788524205133721
sg440
F0.30873304023347986
sg5
F2.086637058469633
sg441
F50.0
sg442
F657.725842010498
sg8
F0.834390681479797
sg443
F1.0
sg444
F0.299355507695307
sg445
F1.0
sg446
F100.0
sg447
g14
sg448
F0.19
sg449
F0.31564053768874567
sg450
F0.11994576402060098
sg451
F0.6
sg452
F0.10067687836445455
sg453
F0.4
sg454
F1.0
sg455
g23
ssa(dp470
I1
(dp471
g3
F0.00202589956077791
sg440
F0.34123817300789516
sg5
F2.195012719152071
sg441
F50.0
sg442
F607.0453236063285
sg8
F0.877457025962789
sg443
F1.0
sg444
F0.35548657589942295
sg445
F1.0
sg446
F100.0
sg447
g14
sg448
F0.19
sg449
F0.2960462618566144
sg450
F0.16935187127488796
sg451
F0.6
sg452
F0.045737222317388325
sg453
F0.4
sg454
F1.0
sg455
g23
ssa(dp472
I1
(dp473
g3
F0.0009681923623810263
sg440
F0.3249270690393841
sg5
F2.327454797759656
sg441
F50.0
sg442
F641.7918154183326
sg8
F0.3895378728258724
sg443
F1.0
sg444
F0.3768498328560597
sg445
F1.0
sg446
F100.0
sg447
g14
sg448
F0.19
sg449
F0.3361754998785838
sg450
F0.3880210591666887
sg451
F0.6
sg452
F0.3125792405400097
sg453
F0.4
sg454
F1.0
sg455
g23
ssa(dp474
I1
(dp475
g3
F0.0015206322950862218
sS'k12'
p476
F0.40172941576868165
sg5
F2.3227893862465225
sS'zrS'
p477
F50.0
sS'zrR'
p478
F808.4514228760011
sg8
F0.5089046144824417
sS'res2'
p479
F1.0
sS's0R'
p480
F0.20915922620949892
sS'res1'
p481
F1.0
sS'storageR'
p482
F100.0
sS'gz'
p483
g14
sS's0S'
p484
F0.19
sS'k1'
p485
F0.30092324897676465
sS'stR'
p486
F0.25376745364598063
sS'stS'
p487
F0.6
sS'nR'
p488
F0.04030422142345649
sS'nS'
p489
F0.4
sS'storageS'
p490
F1.0
sS'vz'
p491
g23
ssa(dp492
I1
(dp493
g3
F0.0017616750183514916
sg476
F0.40551528404002274
sg5
F2.2723133573612095
sg477
F50.0
sg478
F607.4656854756498
sg8
F0.35159877306841925
sg479
F1.0
sg480
F0.18964876202554995
sg481
F1.0
sg482
F100.0
sg483
g14
sg484
F0.19
sg485
F0.31112952574538527
sg486
F0.33771419786930307
sg487
F0.6
sg488
F0.0207933481598074
sg489
F0.4
sg490
F1.0
sg491
g23
ssa(dp494
I1
(dp495
g3
F0.002649879752844606
sg476
F0.4883736138508048
sg5
F2.0962204058417657
sg477
F50.0
sg478
F822.5279702140136
sg8
F0.273890468795145
sg479
F1.0
sg480
F0.21172356674260648
sg481
F1.0
sg482
F100.0
sg483
g14
sg484
F0.19
sg485
F0.3293628517510653
sg486
F0.22583396539188058
sg487
F0.6
sg488
F0.21047312486953182
sg489
F0.4
sg490
F1.0
sg491
g23
ssa(dp496
I1
(dp497
g3
F0.0013361888547801385
sg476
F0.44894221550928404
sg5
F2.3667861218085946
sg477
F50.0
sg478
F774.1475604487284
sg8
F0.888683195776656
sg479
F1.0
sg480
F0.3609901422296627
sg481
F1.0
sg482
F100.0
sg483
g14
sg484
F0.19
sg485
F0.257412038269321
sg486
F0.20027237421988203
sg487
F0.6
sg488
F0.3006668668223016
sg489
F0.4
sg490
F1.0
sg491
g23
ssa(dp498
I1
(dp499
g3
F0.001313170715702638
sg476
F0.3230316860299754
sg5
F2.300484963493734
sg477
F50.0
sg478
F1025.8833978541218
sg8
F0.14359926118283575
sg479
F1.0
sg480
F0.18787380508102386
sg481
F1.0
sg482
F100.0
sg483
g14
sg484
F0.19
sg485
F0.25703200607451687
sg486
F0.2063101654748544
sg487
F0.6
sg488
F0.23572568378541126
sg489
F0.4
sg490
F1.0
sg491
g23
ssa(dp500
I1
(dp501
g3
F0.0017193308645845117
sg476
F0.4586144786711435
sg5
F2.286898430843569
sg477
F50.0
sg478
F1068.4905269502287
sg8
F0.8818740810608638
sg479
F1.0
sg480
F0.3598158583367917
sg481
F1.0
sg482
F100.0
sg483
g14
sg484
F0.19
sg485
F0.3366192164673095
sg486
F0.3487336405331932
sg487
F0.6
sg488
F0.2279936795544621
sg489
F0.4
sg490
F1.0
sg491
g23
ssa(dp502
I1
(dp503
g3
F0.0016979674961944418
sg476
F0.34420464124056643
sg5
F2.172657912560391
sg477
F50.0
sg478
F734.4685662615398
sg8
F0.87283392839723
sg479
F1.0
sg480
F0.3142571716315905
sg481
F1.0
sg482
F100.0
sg483
g14
sg484
F0.19
sg485
F0.3385904160483343
sg486
F0.18804553454537098
sg487
F0.6
sg488
F0.39941780418903755
sg489
F0.4
sg490
F1.0
sg491
g23
ssa(dp504
I1
(dp505
g3
F0.0016697908972091156
sg476
F0.32391271137156813
sg5
F2.2074428507492154
sg477
F50.0
sg478
F850.007544442547
sg8
F0.3533802025157792
sg479
F1.0
sg480
F0.08648587767143977
sg481
F1.0
sg482
F100.0
sg483
g14
sg484
F0.19
sg485
F0.3421650489274898
sg486
F0.13165030867049438
sg487
F0.6
sg488
F0.04919804743702674
sg489
F0.4
sg490
F1.0
sg491
g23
ssa(dp506
I1
(dp507
g3
F0.001473716569638317
sg476
F0.36191124772430294
sg5
F2.2820235531804167
sg477
F50.0
sg478
F900.7410734359039
sg8
F0.2726145723435147
sg479
F1.0
sg480
F0.11728564466246844
sg481
F1.0
sg482
F100.0
sg483
g14
sg484
F0.19
sg485
F0.21386220397428346
sg486
F0.17365139896105547
sg487
F0.6
sg488
F0.053754047658622885
sg489
F0.4
sg490
F1.0
sg491
g23
ssa(dp508
I1
(dp509
g3
F0.0016377880747749812
sg476
F0.3843580210532638
sg5
F2.175139422471272
sg477
F50.0
sg478
F529.8147128195467
sg8
F0.7086257828618091
sg479
F1.0
sg480
F0.3941214482315095
sg481
F1.0
sg482
F100.0
sg483
g14
sg484
F0.19
sg485
F0.28955763744850505
sg486
F0.4076758348506926
sg487
F0.6
sg488
F0.08590272197988388
sg489
F0.4
sg490
F1.0
sg491
g23
ssa(dp510
I1
(dp511
g3
F0.0011358713605443553
sS'k12'
p512
F0.4476604995611747
sg5
F2.3735982915867226
sS'zrS'
p513
F50.0
sS'zrR'
p514
F955.5304944333552
sg8
F0.8036982980504684
sS'res2'
p515
F1.0
sS's0R'
p516
F0.2640865199751436
sS'res1'
p517
F1.0
sS'storageR'
p518
F100.0
sS'gz'
p519
g14
sS's0S'
p520
F0.19
sS'k1'
p521
F0.3716586964729182
sS'stR'
p522
F0.24185323813129786
sS'stS'
p523
F0.6
sS'nR'
p524
F0.23919219331924588
sS'nS'
p525
F0.4
sS'storageS'
p526
F1.0
sS'vz'
p527
g23
ssa(dp528
I1
(dp529
g3
F0.0017787917948999582
sg512
F0.4494029188946975
sg5
F2.18579818228216
sg513
F50.0
sg514
F698.3006276981557
sg8
F0.35464743924599806
sg515
F1.0
sg516
F0.3590722678905405
sg517
F1.0
sg518
F100.0
sg519
g14
sg520
F0.19
sg521
F0.3525985006859085
sg522
F0.37546911261428306
sg523
F0.6
sg524
F0.20662626191612243
sg525
F0.4
sg526
F1.0
sg527
g23
ssa(dp530
I1
(dp531
g3
F0.002739309939716233
sg512
F0.46140692969948255
sg5
F2.0234763659953607
sg513
F50.0
sg514
F538.4311199014563
sg8
F0.27466937006298986
sg515
F1.0
sg516
F0.11812302667632008
sg517
F1.0
sg518
F100.0
sg519
g14
sg520
F0.19
sg521
F0.30741695576137995
sg522
F0.1464836972312214
sg523
F0.6
sg524
F0.16352189111954152
sg525
F0.4
sg526
F1.0
sg527
g23
ssa(dp532
I1
(dp533
g3
F0.000873787694984096
sg512
F0.3110246912588078
sg5
F2.4415732374835875
sg513
F50.0
sg514
F691.5922066238483
sg8
F0.41469684717896915
sg515
F1.0
sg516
F0.261976209242745
sg517
F1.0
sg518
F100.0
sg519
g14
sg520
F0.19
sg521
F0.2982041038792437
sg522
F0.48924780531262047
sg523
F0.6
sg524
F0.011864326407064234
sg525
F0.4
sg526
F1.0
sg527
g23
ssa(dp534
I1
(dp535
g3
F0.0007108883113017744
sg512
F0.3394004528059802
sg5
F2.4631278300222883
sg513
F50.0
sg514
F1033.3266125109556
sg8
F0.34778484156341194
sg515
F1.0
sg516
F0.35823375806476976
sg517
F1.0
sg518
F100.0
sg519
g14
sg520
F0.19
sg521
F0.35703617432360735
sg522
F0.39022823287904673
sg523
F0.6
sg524
F0.06085069436459429
sg525
F0.4
sg526
F1.0
sg527
g23
ssa(dp536
I1
(dp537
g3
F0.000981517490741532
sg512
F0.31820429208327733
sg5
F2.4670079265176836
sg513
F50.0
sg514
F919.5232541195842
sg8
F0.1387552714765108
sg515
F1.0
sg516
F0.0683247250353007
sg517
F1.0
sg518
F100.0
sg519
g14
sg520
F0.19
sg521
F0.23409404026646746
sg522
F0.17729826199462614
sg523
F0.6
sg524
F0.050119459850352883
sg525
F0.4
sg526
F1.0
sg527
g23
ssa(dp538
I1
(dp539
g3
F0.0011694776801865656
sg512
F0.34637922153756223
sg5
F2.4579135138083905
sg513
F50.0
sg514
F1192.7043882890252
sg8
F0.8385450568842169
sg515
F1.0
sg516
F0.33226987058418833
sg517
F1.0
sg518
F100.0
sg519
g14
sg520
F0.19
sg521
F0.336644253973667
sg522
F0.11428493422360822
sg523
F0.6
sg524
F0.2641619813445548
sg525
F0.4
sg526
F1.0
sg527
g23
ssa(dp540
I1
(dp541
g3
F0.0012925019159665818
sg512
F0.4186473168756463
sg5
F2.275507196941519
sg513
F50.0
sg514
F1181.8999302610086
sg8
F0.8885614178036955
sg515
F1.0
sg516
F0.2619422174425631
sg517
F1.0
sg518
F100.0
sg519
g14
sg520
F0.19
sg521
F0.271951205991879
sg522
F0.12026907520793531
sg523
F0.6
sg524
F0.1434376600389027
sg525
F0.4
sg526
F1.0
sg527
g23
ssa(dp542
I1
(dp543
g3
F0.0019403513668110072
sg512
F0.37278808747997033
sg5
F2.1461048074028075
sg513
F50.0
sg514
F992.135177719046
sg8
F0.8937895944678447
sg515
F1.0
sg516
F0.37452860055384724
sg517
F1.0
sg518
F100.0
sg519
g14
sg520
F0.19
sg521
F0.346508446369731
sg522
F0.3531736232870415
sg523
F0.6
sg524
F0.22235594088781002
sg525
F0.4
sg526
F1.0
sg527
g23
ssa(dp544
I1
(dp545
g3
F0.001162646503870186
sg512
F0.41936267648023556
sg5
F2.309998754737102
sg513
F50.0
sg514
F764.4139431706087
sg8
F0.892033380948414
sg515
F1.0
sg516
F0.2823871660239667
sg517
F1.0
sg518
F100.0
sg519
g14
sg520
F0.19
sg521
F0.2683772887656417
sg522
F0.23879492078897827
sg523
F0.6
sg524
F0.039571476365056577
sg525
F0.4
sg526
F1.0
sg527
g23
ssa(dp546
I1
(dp547
g3
F0.00107391048120335
sS'k12'
p548
F0.488121954839633
sg5
F2.390564387086563
sS'zrS'
p549
F50.0
sS'zrR'
p550
F509.25964121537146
sg8
F0.2848759222678343
sS'res2'
p551
F1.0
sS's0R'
p552
F0.23386302943032972
sS'res1'
p553
F1.0
sS'storageR'
p554
F100.0
sS'gz'
p555
g14
sS's0S'
p556
F0.19
sS'k1'
p557
F0.3824178009255368
sS'stR'
p558
F0.2800543239364124
sS'stS'
p559
F0.6
sS'nR'
p560
F0.12071997497502568
sS'nS'
p561
F0.4
sS'storageS'
p562
F1.0
sS'vz'
p563
g23
ssa(dp564
I1
(dp565
g3
F0.0030351696503951035
sg548
F0.48172742387991735
sg5
F2.0937339218500415
sg549
F50.0
sg550
F768.8618121958846
sg8
F0.21968450295416908
sg551
F1.0
sg552
F0.090216691089661
sg553
F1.0
sg554
F100.0
sg555
g14
sg556
F0.19
sg557
F0.3301281707434478
sg558
F0.23845613139579616
sg559
F0.6
sg560
F0.03175009974018399
sg561
F0.4
sg562
F1.0
sg563
g23
ssa(dp566
I1
(dp567
g3
F0.0011813065846724507
sg548
F0.40436693538454127
sg5
F2.400969180467087
sg549
F50.0
sg550
F877.5469226306769
sg8
F0.24740580387895827
sg551
F1.0
sg552
F0.3520452868026456
sg553
F1.0
sg554
F100.0
sg555
g14
sg556
F0.19
sg557
F0.2109359157618738
sg558
F0.615206307473085
sg559
F0.6
sg560
F0.014396962331746536
sg561
F0.4
sg562
F1.0
sg563
g23
ssa(dp568
I1
(dp569
g3
F0.001177862424993468
sg548
F0.3530436548544415
sg5
F2.3812639185357654
sg549
F50.0
sg550
F713.5987406060982
sg8
F0.11975745662660763
sg551
F1.0
sg552
F0.004313019303270638
sg553
F1.0
sg554
F100.0
sg555
g14
sg556
F0.19
sg557
F0.23565622888230695
sg558
F0.23402044671777747
sg559
F0.6
sg560
F0.03160194215770268
sg561
F0.4
sg562
F1.0
sg563
g23
ssa(dp570
I1
(dp571
g3
F0.001694135041983894
sg548
F0.4615717806414908
sg5
F2.323951449594074
sg549
F50.0
sg550
F730.4136439324436
sg8
F0.8071744973360903
sg551
F1.0
sg552
F0.36268612688176227
sg553
F1.0
sg554
F100.0
sg555
g14
sg556
F0.19
sg557
F0.3853789629141248
sg558
F0.1791315460624361
sg559
F0.6
sg560
F0.39427926024214843
sg561
F0.4
sg562
F1.0
sg563
g23
ssa(dp572
I1
(dp573
g3
F0.0013990190277106372
sg548
F0.3197142771928952
sg5
F2.3864736183913533
sg549
F50.0
sg550
F558.4306144400222
sg8
F0.16228854811243246
sg551
F1.0
sg552
F0.2879342402183313
sg553
F1.0
sg554
F100.0
sg555
g14
sg556
F0.19
sg557
F0.210937122163947
sg558
F0.4428533286070152
sg559
F0.6
sg560
F0.04441275433219973
sg561
F0.4
sg562
F1.0
sg563
g23
ssa(dp574
I1
(dp575
g3
F0.001500103046306397
sg548
F0.39888729831227143
sg5
F2.248799518961617
sg549
F50.0
sg550
F543.5945613529033
sg8
F0.25584200350422703
sg551
F1.0
sg552
F0.27574015332541346
sg553
F1.0
sg554
F100.0
sg555
g14
sg556
F0.19
sg557
F0.35231636808767103
sg558
F0.7383162885049311
sg559
F0.6
sg560
F0.010804367511495327
sg561
F0.4
sg562
F1.0
sg563
g23
ssa(dp576
I1
(dp577
g3
F0.002691432074387669
sg548
F0.4663386840468964
sg5
F2.0438084388329987
sg549
F50.0
sg550
F750.5693046283245
sg8
F0.8622664388714391
sg551
F1.0
sg552
F0.20479535834496665
sg553
F1.0
sg554
F100.0
sg555
g14
sg556
F0.19
sg557
F0.39819171560185396
sg558
F0.1493872340274887
sg559
F0.6
sg560
F0.3557915552790382
sg561
F0.4
sg562
F1.0
sg563
g23
ssa(dp578
I1
(dp579
g3
F0.0012543069023049922
sg548
F0.46523162113986244
sg5
F2.2831943981251217
sg549
F50.0
sg550
F1085.7590246914106
sg8
F0.861786355248129
sg551
F1.0
sg552
F0.26392355355417657
sg553
F1.0
sg554
F100.0
sg555
g14
sg556
F0.19
sg557
F0.39731028359101295
sg558
F0.11619541783598547
sg559
F0.6
sg560
F0.28779855614434907
sg561
F0.4
sg562
F1.0
sg563
g23
ssa(dp580
I1
(dp581
g3
F0.0016893142404068226
sg548
F0.4814355604102209
sg5
F2.330610544416667
sg549
F50.0
sg550
F842.4115796479037
sg8
F0.7806440748210594
sg551
F1.0
sg552
F0.3505077503937613
sg553
F1.0
sg554
F100.0
sg555
g14
sg556
F0.19
sg557
F0.35048495649421973
sg558
F0.3211012789921808
sg559
F0.6
sg560
F0.29037701001795296
sg561
F0.4
sg562
F1.0
sg563
g23
ssa(dp582
I1
(dp583
g3
F0.001709258277092122
sS'k12'
p584
F0.47267290496557535
sg5
F2.2561436777042907
sS'zrS'
p585
F50.0
sS'zrR'
p586
F683.1610898082419
sg8
F0.8342207915463493
sS'res2'
p587
F1.0
sS's0R'
p588
F0.3257347030782334
sS'res1'
p589
F1.0
sS'storageR'
p590
F100.0
sS'gz'
p591
g14
sS's0S'
p592
F0.19
sS'k1'
p593
F0.3721205252122749
sS'stR'
p594
F0.1412005019784676
sS'stS'
p595
F0.6
sS'nR'
p596
F0.16568450194408785
sS'nS'
p597
F0.4
sS'storageS'
p598
F1.0
sS'vz'
p599
g23
ssa(dp600
I1
(dp601
g3
F0.0006680128639297946
sg584
F0.40030890795623664
sg5
F2.4875178470193093
sg585
F50.0
sg586
F1087.540368638502
sg8
F0.8845014982475751
sg587
F1.0
sg588
F0.35191816274970616
sg589
F1.0
sg590
F100.0
sg591
g14
sg592
F0.19
sg593
F0.3924834844748383
sg594
F0.13944332054955366
sg595
F0.6
sg596
F0.2801707815320899
sg597
F0.4
sg598
F1.0
sg599
g23
ssa(dp602
I1
(dp603
g3
F0.0026996117294479836
sg584
F0.4480264093828321
sg5
F2.0321561550852874
sg585
F50.0
sg586
F1121.9553330871881
sg8
F0.8951337946265224
sg587
F1.0
sg588
F0.3429602933292068
sg589
F1.0
sg590
F100.0
sg591
g14
sg592
F0.19
sg593
F0.30431112054011944
sg594
F0.1288051041820083
sg595
F0.6
sg596
F0.03642665387783664
sg597
F0.4
sg598
F1.0
sg599
g23
ssa(dp604
I1
(dp605
g3
F0.0008374840970188455
sg584
F0.42608149415027946
sg5
F2.4461266008344507
sg585
F50.0
sg586
F1050.052498015567
sg8
F0.8796835441561988
sg587
F1.0
sg588
F0.26519183811778
sg589
F1.0
sg590
F100.0
sg591
g14
sg592
F0.19
sg593
F0.2546802319112798
sg594
F0.13098668620971854
sg595
F0.6
sg596
F0.07212818652440306
sg597
F0.4
sg598
F1.0
sg599
g23
ssa(dp606
I1
(dp607
g3
F0.0011359008428528943
sg584
F0.3045241475680622
sg5
F2.2951234867827006
sg585
F50.0
sg586
F850.6538284695732
sg8
F0.8851476438968933
sg587
F1.0
sg588
F0.240176645117338
sg589
F1.0
sg590
F100.0
sg591
g14
sg592
F0.19
sg593
F0.3663947640608169
sg594
F0.2107205758375013
sg595
F0.6
sg596
F0.06090189199632591
sg597
F0.4
sg598
F1.0
sg599
g23
ssa(dp608
I1
(dp609
g3
F0.0009179038373888868
sg584
F0.31786854914394297
sg5
F2.4460650195528215
sg585
F50.0
sg586
F1195.1680589522443
sg8
F0.8307074092510898
sg587
F1.0
sg588
F0.3198398849716073
sg589
F1.0
sg590
F100.0
sg591
g14
sg592
F0.19
sg593
F0.3091780480693316
sg594
F0.10440416958356034
sg595
F0.6
sg596
F0.10608676167772509
sg597
F0.4
sg598
F1.0
sg599
g23
ssa(dp610
I1
(dp611
g3
F0.0015197180045388417
sg584
F0.4098188033787763
sg5
F2.333205749113766
sg585
F50.0
sg586
F913.7579056013376
sg8
F0.7814634898070063
sg587
F1.0
sg588
F0.2043940238152609
sg589
F1.0
sg590
F100.0
sg591
g14
sg592
F0.19
sg593
F0.3772139975071659
sg594
F0.13470006502993226
sg595
F0.6
sg596
F0.10773074199090678
sg597
F0.4
sg598
F1.0
sg599
g23
ssa(dp612
I1
(dp613
g3
F0.0032207918441260913
sg584
F0.4115049566181349
sg5
F2.025787438717506
sg585
F50.0
sg586
F627.2910647162626
sg8
F0.2574814767546866
sg587
F1.0
sg588
F0.38724796514516385
sg589
F1.0
sg590
F100.0
sg591
g14
sg592
F0.19
sg593
F0.34849800330081404
sg594
F0.40334852235861884
sg595
F0.6
sg596
F0.33052080492976665
sg597
F0.4
sg598
F1.0
sg599
g23
ssa(dp614
I1
(dp615
g3
F0.002187524247218204
sg584
F0.4623402361488109
sg5
F2.18611885104895
sg585
F50.0
sg586
F855.9445414575118
sg8
F0.8290688342117776
sg587
F1.0
sg588
F0.18131588127010012
sg589
F1.0
sg590
F100.0
sg591
g14
sg592
F0.19
sg593
F0.26295897573321037
sg594
F0.18262609849145006
sg595
F0.6
sg596
F0.3339779199308956
sg597
F0.4
sg598
F1.0
sg599
g23
ssa(dp616
I1
(dp617
g3
F0.0021945282516676263
sg584
F0.3770828064805648
sg5
F2.1266695370043722
sg585
F50.0
sg586
F1109.18135776061
sg8
F0.8349104651992428
sg587
F1.0
sg588
F0.35580834691324514
sg589
F1.0
sg590
F100.0
sg591
g14
sg592
F0.19
sg593
F0.3450756910166918
sg594
F0.19343071671112072
sg595
F0.6
sg596
F0.3784281124323964
sg597
F0.4
sg598
F1.0
sg599
g23
ssa(dp618
I1
(dp619
g3
F0.003639561876839049
sS'k12'
p620
F0.47355033844749794
sg5
F2.0269126097106978
sS'zrS'
p621
F50.0
sS'zrR'
p622
F870.7524596472067
sg8
F0.20263756525659754
sS'res2'
p623
F1.0
sS's0R'
p624
F0.15619776348814307
sS'res1'
p625
F1.0
sS'storageR'
p626
F100.0
sS'gz'
p627
g14
sS's0S'
p628
F0.19
sS'k1'
p629
F0.2906310651485703
sS'stR'
p630
F0.18074952475063455
sS'stS'
p631
F0.6
sS'nR'
p632
F0.17224996340109788
sS'nS'
p633
F0.4
sS'storageS'
p634
F1.0
sS'vz'
p635
g23
ssa(dp636
I1
(dp637
g3
F0.0010957446163519621
sg620
F0.36422127805876986
sg5
F2.362681167213556
sg621
F50.0
sg622
F1004.3978573993618
sg8
F0.38419016475458034
sg623
F1.0
sg624
F0.2721207488939036
sg625
F1.0
sg626
F100.0
sg627
g14
sg628
F0.19
sg629
F0.3804671725192461
sg630
F0.3272903780422619
sg631
F0.6
sg632
F0.03713181983719713
sg633
F0.4
sg634
F1.0
sg635
g23
ssa(dp638
I1
(dp639
g3
F0.001669946191333091
sg620
F0.4269789125950891
sg5
F2.273101367132434
sg621
F50.0
sg622
F966.9697565952217
sg8
F0.353150409346639
sg623
F1.0
sg624
F0.389034635174037
sg625
F1.0
sg626
F100.0
sg627
g14
sg628
F0.19
sg629
F0.22546926766059383
sg630
F0.39627558603579016
sg631
F0.6
sg632
F0.33573521607307666
sg633
F0.4
sg634
F1.0
sg635
g23
ssa(dp640
I1
(dp641
g3
F0.005777497881869209
sg620
F0.4575651408408154
sg5
F1.837283954990337
sg621
F50.0
sg622
F807.98347440219
sg8
F0.8303295667978695
sg623
F1.0
sg624
F0.3185255339003785
sg625
F1.0
sg626
F100.0
sg627
g14
sg628
F0.19
sg629
F0.3757289639630873
sg630
F0.2608879926974289
sg631
F0.6
sg632
F0.035527755451186874
sg633
F0.4
sg634
F1.0
sg635
g23
ssa(dp642
I1
(dp643
g3
F0.0016011675015804197
sg620
F0.36054216183841975
sg5
F2.2254619390397243
sg621
F50.0
sg622
F1054.9519515374172
sg8
F0.6634879796495543
sg623
F1.0
sg624
F0.23407039699470236
sg625
F1.0
sg626
F100.0
sg627
g14
sg628
F0.19
sg629
F0.22381312005636939
sg630
F0.26535567019165046
sg631
F0.6
sg632
F0.033997793573490205
sg633
F0.4
sg634
F1.0
sg635
g23
ssa(dp644
I1
(dp645
g3
F0.0014190691309114317
sg620
F0.43642897989508844
sg5
F2.30386859616675
sg621
F50.0
sg622
F875.9281771063875
sg8
F0.14952111040152874
sg623
F1.0
sg624
F0.24473182432034624
sg625
F1.0
sg626
F100.0
sg627
g14
sg628
F0.19
sg629
F0.34431615954340855
sg630
F0.26831232946093464
sg631
F0.6
sg632
F0.20762807540974307
sg633
F0.4
sg634
F1.0
sg635
g23
ssa(dp646
I1
(dp647
g3
F0.0018923915234878178
sg620
F0.38166710522198755
sg5
F2.3524299065461935
sg621
F50.0
sg622
F802.4330416688838
sg8
F0.6043952832245243
sg623
F1.0
sg624
F0.3883102168364745
sg625
F1.0
sg626
F100.0
sg627
g14
sg628
F0.19
sg629
F0.3111905163893355
sg630
F0.3910450430965229
sg631
F0.6
sg632
F0.3677822971201356
sg633
F0.4
sg634
F1.0
sg635
g23
ssa(dp648
I1
(dp649
g3
F0.006116309872567621
sg620
F0.4534174019858462
sg5
F1.897048036456224
sg621
F50.0
sg622
F957.6062607463657
sg8
F0.5399509968903716
sg623
F1.0
sg624
F0.38474016061494853
sg625
F1.0
sg626
F100.0
sg627
g14
sg628
F0.19
sg629
F0.2512912341351844
sg630
F0.41151280054244543
sg631
F0.6
sg632
F0.024728394407439597
sg633
F0.4
sg634
F1.0
sg635
g23
ssa(dp650
I1
(dp651
g3
F0.0014135740300742197
sg620
F0.35407244831978213
sg5
F2.3706580649431874
sg621
F50.0
sg622
F808.7736116762455
sg8
F0.8825541528383052
sg623
F1.0
sg624
F0.33652424406322073
sg625
F1.0
sg626
F100.0
sg627
g14
sg628
F0.19
sg629
F0.321196492780918
sg630
F0.2785705578822342
sg631
F0.6
sg632
F0.03933415427100552
sg633
F0.4
sg634
F1.0
sg635
g23
ssa(dp652
I1
(dp653
g3
F0.0011591397170019405
sg620
F0.38168459999640153
sg5
F2.348484436713681
sg621
F50.0
sg622
F1083.840575350601
sg8
F0.8530754631469681
sg623
F1.0
sg624
F0.33238461054433155
sg625
F1.0
sg626
F100.0
sg627
g14
sg628
F0.19
sg629
F0.36563155990674795
sg630
F0.13435353913738118
sg631
F0.6
sg632
F0.09077320027533468
sg633
F0.4
sg634
F1.0
sg635
g23
ssa(dp654
I1
(dp655
g3
F0.001406400355747221
sS'k12'
p656
F0.34878911168009297
sg5
F2.248873124293219
sS'zrS'
p657
F50.0
sS'zrR'
p658
F946.4427041677111
sg8
F0.233398172313548
sS'res2'
p659
F1.0
sS's0R'
p660
F0.2822854147270215
sS'res1'
p661
F1.0
sS'storageR'
p662
F100.0
sS'gz'
p663
g14
sS's0S'
p664
F0.19
sS'k1'
p665
F0.2623556443819263
sS'stR'
p666
F0.3286684318018601
sS'stS'
p667
F0.6
sS'nR'
p668
F0.08091751036086439
sS'nS'
p669
F0.4
sS'storageS'
p670
F1.0
sS'vz'
p671
g23
ssa(dp672
I1
(dp673
g3
F0.000924725956118495
sg656
F0.3851838971966681
sg5
F2.41155521931011
sg657
F50.0
sg658
F652.1640165974409
sg8
F0.4418400102108476
sg659
F1.0
sg660
F0.18053482412796754
sg661
F1.0
sg662
F100.0
sg663
g14
sg664
F0.19
sg665
F0.2797081626063431
sg666
F0.24380548486192632
sg667
F0.6
sg668
F0.03726454211322473
sg669
F0.4
sg670
F1.0
sg671
g23
ssa(dp674
I1
(dp675
g3
F0.002665626518142895
sg656
F0.4164899808388776
sg5
F2.0256851691124744
sg657
F50.0
sg658
F1110.606297031893
sg8
F0.8660869837501809
sg659
F1.0
sg660
F0.2799406548047695
sg661
F1.0
sg662
F100.0
sg663
g14
sg664
F0.19
sg665
F0.32176942317038815
sg666
F0.1762637441561349
sg667
F0.6
sg668
F0.3987112315637953
sg669
F0.4
sg670
F1.0
sg671
g23
ssa(dp676
I1
(dp677
g3
F0.0012895208200519783
sg656
F0.39540585696746844
sg5
F2.2895431500573507
sg657
F50.0
sg658
F669.2050471984563
sg8
F0.13864248961852238
sg659
F1.0
sg660
F0.19143011719973002
sg661
F1.0
sg662
F100.0
sg663
g14
sg664
F0.19
sg665
F0.3515854391446134
sg666
F0.44062519122084853
sg667
F0.6
sg668
F0.0276407590555989
sg669
F0.4
sg670
F1.0
sg671
g23
ssa(dp678
I1
(dp679
g3
F0.0027404633091609445
sg656
F0.36445486830653023
sg5
F2.1393135574441735
sg657
F50.0
sg658
F533.7149637858457
sg8
F0.2405766754334267
sg659
F1.0
sg660
F0.12313702165408841
sg661
F1.0
sg662
F100.0
sg663
g14
sg664
F0.19
sg665
F0.28362791290336337
sg666
F0.15455442183003376
sg667
F0.6
sg668
F0.1925472862055579
sg669
F0.4
sg670
F1.0
sg671
g23
ssa(dp680
I1
(dp681
g3
F0.0035367680047165787
sg656
F0.3334799611017313
sg5
F1.924010263373094
sg657
F50.0
sg658
F922.0130961484552
sg8
F0.84915901780797
sg659
F1.0
sg660
F0.32034183504645114
sg661
F1.0
sg662
F100.0
sg663
g14
sg664
F0.19
sg665
F0.3786159363092852
sg666
F0.2103814634610237
sg667
F0.6
sg668
F0.22662004642200473
sg669
F0.4
sg670
F1.0
sg671
g23
ssa(dp682
I1
(dp683
g3
F0.0012972635039507107
sg656
F0.40786750143435063
sg5
F2.3082441635879403
sg657
F50.0
sg658
F529.8727135361441
sg8
F0.7887880740386631
sg659
F1.0
sg660
F0.3141130140979067
sg661
F1.0
sg662
F100.0
sg663
g14
sg664
F0.19
sg665
F0.31292553950746443
sg666
F0.32503644136821064
sg667
F0.6
sg668
F0.11729573956792819
sg669
F0.4
sg670
F1.0
sg671
g23
ssa(dp684
I1
(dp685
g3
F0.003491489400792277
sg656
F0.42389663810291206
sg5
F1.8792922951328481
sg657
F50.0
sg658
F1092.314479679988
sg8
F0.8894144520733196
sg659
F1.0
sg660
F0.30869430781037654
sg661
F1.0
sg662
F100.0
sg663
g14
sg664
F0.19
sg665
F0.37970759795610276
sg666
F0.29124821967028136
sg667
F0.6
sg668
F0.032555393441734345
sg669
F0.4
sg670
F1.0
sg671
g23
ssa(dp686
I1
(dp687
g3
F0.002796894011088569
sg656
F0.37733926106012644
sg5
F2.0447683897255797
sg657
F50.0
sg658
F942.8521537365855
sg8
F0.8793356306758662
sg659
F1.0
sg660
F0.21271032038136162
sg661
F1.0
sg662
F100.0
sg663
g14
sg664
F0.19
sg665
F0.2899427734777233
sg666
F0.12292455616935882
sg667
F0.6
sg668
F0.0707213710128898
sg669
F0.4
sg670
F1.0
sg671
g23
ssa(dp688
I1
(dp689
g3
F0.0016286102985703006
sg656
F0.40500400139647974
sg5
F2.421794252093078
sg657
F50.0
sg658
F750.9251473106244
sg8
F0.15382682053195795
sg659
F1.0
sg660
F0.0837781321515196
sg661
F1.0
sg662
F100.0
sg663
g14
sg664
F0.19
sg665
F0.2404540237315762
sg666
F0.20959169585334658
sg667
F0.6
sg668
F0.04608532399966809
sg669
F0.4
sg670
F1.0
sg671
g23
ssa(dp690
I1
(dp691
g3
F0.001584367936342305
sS'k12'
p692
F0.361721315446789
sg5
F2.3246561583785494
sS'zrS'
p693
F50.0
sS'zrR'
p694
F627.6708645998248
sg8
F0.8544043077586888
sS'res2'
p695
F1.0
sS's0R'
p696
F0.3950733308598111
sS'res1'
p697
F1.0
sS'storageR'
p698
F100.0
sS'gz'
p699
g14
sS's0S'
p700
F0.19
sS'k1'
p701
F0.23689583384885426
sS'stR'
p702
F0.3853725776253484
sS'stS'
p703
F0.6
sS'nR'
p704
F0.0596813116974275
sS'nS'
p705
F0.4
sS'storageS'
p706
F1.0
sS'vz'
p707
g23
ssa(dp708
I1
(dp709
g3
F0.003254971592655866
sg692
F0.4874019443712155
sg5
F2.002933215804585
sg693
F50.0
sg694
F587.7124071572011
sg8
F0.30624278093109025
sg695
F1.0
sg696
F0.03952585872290526
sg697
F1.0
sg698
F100.0
sg699
g14
sg700
F0.19
sg701
F0.24175260485344863
sg702
F0.17989659850144443
sg703
F0.6
sg704
F0.030210556483399147
sg705
F0.4
sg706
F1.0
sg707
g23
ssa(dp710
I1
(dp711
g3
F0.0010874781198114347
sg692
F0.4192586863069052
sg5
F2.415267474388127
sg693
F50.0
sg694
F903.2889515387315
sg8
F0.30205041866383153
sg695
F1.0
sg696
F0.12107717160512332
sg697
F1.0
sg698
F100.0
sg699
g14
sg700
F0.19
sg701
F0.28891411087935653
sg702
F0.13596031041034956
sg703
F0.6
sg704
F0.1542278273547195
sg705
F0.4
sg706
F1.0
sg707
g23
ssa(dp712
I1
(dp713
g3
F0.002871087562584136
sg692
F0.4972246602868551
sg5
F1.9769164043218432
sg693
F50.0
sg694
F1150.8094589039242
sg8
F0.8992056997167538
sg695
F1.0
sg696
F0.3942230949062502
sg697
F1.0
sg698
F100.0
sg699
g14
sg700
F0.19
sg701
F0.36568753088838657
sg702
F0.16425217475455084
sg703
F0.6
sg704
F0.2607888958355111
sg705
F0.4
sg706
F1.0
sg707
g23
ssa(dp714
I1
(dp715
g3
F0.001147253980065285
sg692
F0.43336518624752096
sg5
F2.356465694105715
sg693
F50.0
sg694
F1148.9158309769168
sg8
F0.8995587431212625
sg695
F1.0
sg696
F0.3629821656127612
sg697
F1.0
sg698
F100.0
sg699
g14
sg700
F0.19
sg701
F0.3231247769127167
sg702
F0.22787411249085016
sg703
F0.6
sg704
F0.25183120057915537
sg705
F0.4
sg706
F1.0
sg707
g23
ssa(dp716
I1
(dp717
g3
F0.003959952640189845
sg692
F0.451670485074236
sg5
F1.9294329505098577
sg693
F50.0
sg694
F1124.0825002938045
sg8
F0.28038835061955203
sg695
F1.0
sg696
F0.32547125220473344
sg697
F1.0
sg698
F100.0
sg699
g14
sg700
F0.19
sg701
F0.39699315810313607
sg702
F0.4874117368651095
sg703
F0.6
sg704
F0.012972492213563516
sg705
F0.4
sg706
F1.0
sg707
g23
ssa(dp718
I1
(dp719
g3
F0.0049157069029939805
sg692
F0.3428758495459527
sg5
F1.803721439240869
sg693
F50.0
sg694
F1097.219467371735
sg8
F0.868871561417918
sg695
F1.0
sg696
F0.3461911672230014
sg697
F1.0
sg698
F100.0
sg699
g14
sg700
F0.19
sg701
F0.27089117315817113
sg702
F0.18506627319581775
sg703
F0.6
sg704
F0.13396844977950786
sg705
F0.4
sg706
F1.0
sg707
g23
ssa(dp720
I1
(dp721
g3
F0.002351593742903119
sg692
F0.3647552860120875
sg5
F2.1467223902058525
sg693
F50.0
sg694
F955.4961869562704
sg8
F0.6264510278041358
sg695
F1.0
sg696
F0.11645424511529767
sg697
F1.0
sg698
F100.0
sg699
g14
sg700
F0.19
sg701
F0.22071320858303334
sg702
F0.12398737576417976
sg703
F0.6
sg704
F0.07407023606720989
sg705
F0.4
sg706
F1.0
sg707
g23
ssa(dp722
I1
(dp723
g3
F0.002813451908478926
sg692
F0.41272303711668507
sg5
F2.2251297126324348
sg693
F50.0
sg694
F669.0068109964301
sg8
F0.8217001146276762
sg695
F1.0
sg696
F0.2897267896129218
sg697
F1.0
sg698
F100.0
sg699
g14
sg700
F0.19
sg701
F0.2807491929444872
sg702
F0.1292039575678845
sg703
F0.6
sg704
F0.39342070997730455
sg705
F0.4
sg706
F1.0
sg707
g23
ssa(dp724
I1
(dp725
g3
F0.001875435711505405
sg692
F0.31988051634577763
sg5
F2.163541847080669
sg693
F50.0
sg694
F921.3142720000428
sg8
F0.19365591373925267
sg695
F1.0
sg696
F0.08810550490922281
sg697
F1.0
sg698
F100.0
sg699
g14
sg700
F0.19
sg701
F0.23760880275150142
sg702
F0.3794514007899211
sg703
F0.6
sg704
F0.015331056873286397
sg705
F0.4
sg706
F1.0
sg707
g23
ssa(dp726
I1
(dp727
g3
F0.0011867826846924342
sS'k12'
p728
F0.3781287867988864
sg5
F2.3165362754431404
sS'zrS'
p729
F50.0
sS'zrR'
p730
F913.0900581771998
sg8
F0.10791321207275546
sS'res2'
p731
F1.0
sS's0R'
p732
F0.2690797907909819
sS'res1'
p733
F1.0
sS'storageR'
p734
F100.0
sS'gz'
p735
g14
sS's0S'
p736
F0.19
sS'k1'
p737
F0.36410467392598234
sS'stR'
p738
F0.7531867225705178
sS'stS'
p739
F0.6
sS'nR'
p740
F0.012464883940073293
sS'nS'
p741
F0.4
sS'storageS'
p742
F1.0
sS'vz'
p743
g23
ssa(dp744
I1
(dp745
g3
F0.001636084314288462
sg728
F0.4231502045810262
sg5
F2.239429689935811
sg729
F50.0
sg730
F1047.9538799100546
sg8
F0.7631291413253345
sg731
F1.0
sg732
F0.21203737972203368
sg733
F1.0
sg734
F100.0
sg735
g14
sg736
F0.19
sg737
F0.3209334388982346
sg738
F0.15675267941407453
sg739
F0.6
sg740
F0.3532234339635696
sg741
F0.4
sg742
F1.0
sg743
g23
ssa(dp746
I1
(dp747
g3
F0.0036858692858953604
sg728
F0.4792039544531649
sg5
F2.0165197830015287
sg729
F50.0
sg730
F1026.0684392195462
sg8
F0.3893932292569299
sg731
F1.0
sg732
F0.17213866379874232
sg733
F1.0
sg734
F100.0
sg735
g14
sg736
F0.19
sg737
F0.22481677638319647
sg738
F0.30251638337339126
sg739
F0.6
sg740
F0.012167527289290382
sg741
F0.4
sg742
F1.0
sg743
g23
ssa(dp748
I1
(dp749
g3
F0.0009086459632510977
sg728
F0.42581119239928067
sg5
F2.4836036339917205
sg729
F50.0
sg730
F649.4140537353281
sg8
F0.8368633366023257
sg731
F1.0
sg732
F0.24651742506430183
sg733
F1.0
sg734
F100.0
sg735
g14
sg736
F0.19
sg737
F0.26445025402197586
sg738
F0.27986939784883713
sg739
F0.6
sg740
F0.024726439812623412
sg741
F0.4
sg742
F1.0
sg743
g23
ssa(dp750
I1
(dp751
g3
F0.000785788146755821
sg728
F0.3666316102460493
sg5
F2.493553040974831
sg729
F50.0
sg730
F654.4276397893219
sg8
F0.8996444610321734
sg731
F1.0
sg732
F0.3508513760903259
sg733
F1.0
sg734
F100.0
sg735
g14
sg736
F0.19
sg737
F0.3938382685051232
sg738
F0.27601314639208707
sg739
F0.6
sg740
F0.35242891271643034
sg741
F0.4
sg742
F1.0
sg743
g23
ssa(dp752
I1
(dp753
g3
F0.0014386273226324024
sg728
F0.4380076468931969
sg5
F2.333342815582255
sg729
F50.0
sg730
F1185.9607674553274
sg8
F0.8076350480556739
sg731
F1.0
sg732
F0.3539268930735751
sg733
F1.0
sg734
F100.0
sg735
g14
sg736
F0.19
sg737
F0.34076474255517775
sg738
F0.19022251212017915
sg739
F0.6
sg740
F0.01633917560583226
sg741
F0.4
sg742
F1.0
sg743
g23
ssa(dp754
I1
(dp755
g3
F0.003870053277190563
sg728
F0.35998885739823006
sg5
F2.0594695439515465
sg729
F50.0
sg730
F1148.3808565830432
sg8
F0.8431928657880351
sg731
F1.0
sg732
F0.34585314558322977
sg733
F1.0
sg734
F100.0
sg735
g14
sg736
F0.19
sg737
F0.24513379550358957
sg738
F0.3465362405793247
sg739
F0.6
sg740
F0.10165733120739216
sg741
F0.4
sg742
F1.0
sg743
g23
ssa(dp756
I1
(dp757
g3
F0.0009630669176161059
sg728
F0.30444393502395156
sg5
F2.4353756049943147
sg729
F50.0
sg730
F714.5300399670473
sg8
F0.8936265462806413
sg731
F1.0
sg732
F0.3920499249383287
sg733
F1.0
sg734
F100.0
sg735
g14
sg736
F0.19
sg737
F0.35442185224577466
sg738
F0.19524514373340543
sg739
F0.6
sg740
F0.28636354785652884
sg741
F0.4
sg742
F1.0
sg743
g23
ssa(dp758
I1
(dp759
g3
F0.0026603928031304386
sg728
F0.3437577571578732
sg5
F2.1309712253100432
sg729
F50.0
sg730
F532.8284276917061
sg8
F0.848546400478206
sg731
F1.0
sg732
F0.36665767645712266
sg733
F1.0
sg734
F100.0
sg735
g14
sg736
F0.19
sg737
F0.2466083159797276
sg738
F0.214166914915334
sg739
F0.6
sg740
F0.01590114824261058
sg741
F0.4
sg742
F1.0
sg743
g23
ssa(dp760
I1
(dp761
g3
F0.004569544920131846
sg728
F0.348210494068675
sg5
F1.9720554457737811
sg729
F50.0
sg730
F769.7938323431474
sg8
F0.7963156221523244
sg731
F1.0
sg732
F0.34272219399015685
sg733
F1.0
sg734
F100.0
sg735
g14
sg736
F0.19
sg737
F0.2625051862742571
sg738
F0.24928775348737534
sg739
F0.6
sg740
F0.0795776634852358
sg741
F0.4
sg742
F1.0
sg743
g23
ssa(dp762
I1
(dp763
g3
F0.0014331904911366307
sS'k12'
p764
F0.37051409840378613
sg5
F2.309445281048971
sS'zrS'
p765
F50.0
sS'zrR'
p766
F731.5169569686501
sg8
F0.3152052582587671
sS'res2'
p767
F1.0
sS's0R'
p768
F0.08502780735719058
sS'res1'
p769
F1.0
sS'storageR'
p770
F100.0
sS'gz'
p771
g14
sS's0S'
p772
F0.19
sS'k1'
p773
F0.35039967984292636
sS'stR'
p774
F0.2490234057263522
sS'stS'
p775
F0.6
sS'nR'
p776
F0.016760485812632914
sS'nS'
p777
F0.4
sS'storageS'
p778
F1.0
sS'vz'
p779
g23
ssa(dp780
I1
(dp781
g3
F0.0016009736197913486
sg764
F0.4158789399627304
sg5
F2.309220422356006
sg765
F50.0
sg766
F611.9299648856075
sg8
F0.38578973967054475
sg767
F1.0
sg768
F0.08242265333043695
sg769
F1.0
sg770
F100.0
sg771
g14
sg772
F0.19
sg773
F0.3283249852998422
sg774
F0.10681143514012188
sg775
F0.6
sg776
F0.1449547889529973
sg777
F0.4
sg778
F1.0
sg779
g23
ssa(dp782
I1
(dp783
g3
F0.002493893593906365
sg764
F0.36924188540847996
sg5
F2.161528516018641
sg765
F50.0
sg766
F739.7093145109067
sg8
F0.16305299556693634
sg767
F1.0
sg768
F0.3153304133503161
sg769
F1.0
sg770
F100.0
sg771
g14
sg772
F0.19
sg773
F0.2733178172227751
sg774
F0.5061355896165968
sg775
F0.6
sg776
F0.02575125190819822
sg777
F0.4
sg778
F1.0
sg779
g23
ssa(dp784
I1
(dp785
g3
F0.0023785965618491525
sg764
F0.333203609545989
sg5
F2.0354972926478045
sg765
F50.0
sg766
F712.5430535373556
sg8
F0.5165238800541129
sg767
F1.0
sg768
F0.3334156979469742
sg769
F1.0
sg770
F100.0
sg771
g14
sg772
F0.19
sg773
F0.39009593244650614
sg774
F0.34123715090268336
sg775
F0.6
sg776
F0.1355787259718334
sg777
F0.4
sg778
F1.0
sg779
g23
ssa(dp786
I1
(dp787
g3
F0.0017935792010582957
sg764
F0.4748089953921117
sg5
F2.1161271697802695
sg765
F50.0
sg766
F858.8177891264572
sg8
F0.3213162665663578
sg767
F1.0
sg768
F0.389665350097332
sg769
F1.0
sg770
F100.0
sg771
g14
sg772
F0.19
sg773
F0.32424338145070836
sg774
F0.4799413374851208
sg775
F0.6
sg776
F0.03444535417220932
sg777
F0.4
sg778
F1.0
sg779
g23
ssa(dp788
I1
(dp789
g3
F0.002139924728571757
sg764
F0.30417253333986266
sg5
F2.122684914088699
sg765
F50.0
sg766
F1083.0015466878626
sg8
F0.11184971861198943
sg767
F1.0
sg768
F0.3899071754034258
sg769
F1.0
sg770
F100.0
sg771
g14
sg772
F0.19
sg773
F0.30260170425718236
sg774
F0.7489902437533513
sg775
F0.6
sg776
F0.012767222582689261
sg777
F0.4
sg778
F1.0
sg779
g23
ssa(dp790
I1
(dp791
g3
F0.0030346850619637385
sg764
F0.4939372185970154
sg5
F2.0714143959762144
sg765
F50.0
sg766
F725.6677887715146
sg8
F0.26408266665998326
sg767
F1.0
sg768
F0.14367638297331592
sg769
F1.0
sg770
F100.0
sg771
g14
sg772
F0.19
sg773
F0.3070777518570397
sg774
F0.17524573213980404
sg775
F0.6
sg776
F0.11054730907637401
sg777
F0.4
sg778
F1.0
sg779
g23
ssa(dp792
I1
(dp793
g3
F0.0011425331192734794
sg764
F0.3927106405581265
sg5
F2.3815495063512433
sg765
F50.0
sg766
F925.3724413025647
sg8
F0.8425731280598309
sg767
F1.0
sg768
F0.37682850888305314
sg769
F1.0
sg770
F100.0
sg771
g14
sg772
F0.19
sg773
F0.24795691987742996
sg774
F0.29544527681221855
sg775
F0.6
sg776
F0.2568347674821258
sg777
F0.4
sg778
F1.0
sg779
g23
ssa(dp794
I1
(dp795
g3
F0.0007692700064979539
sg764
F0.4263351963041222
sg5
F2.4316958165999294
sg765
F50.0
sg766
F615.4849459043104
sg8
F0.8464699355151862
sg767
F1.0
sg768
F0.2922388385702323
sg769
F1.0
sg770
F100.0
sg771
g14
sg772
F0.19
sg773
F0.3054105149369892
sg774
F0.3045201379027467
sg775
F0.6
sg776
F0.019050149704620586
sg777
F0.4
sg778
F1.0
sg779
g23
ssa(dp796
I1
(dp797
g3
F0.0029087010537367773
sg764
F0.39812234787157375
sg5
F2.0655126849578513
sg765
F50.0
sg766
F1102.9284594210053
sg8
F0.8033156918731182
sg767
F1.0
sg768
F0.24251688912964578
sg769
F1.0
sg770
F100.0
sg771
g14
sg772
F0.19
sg773
F0.3428069561237599
sg774
F0.12875939878882933
sg775
F0.6
sg776
F0.3551677699857169
sg777
F0.4
sg778
F1.0
sg779
g23
ssa(dp798
I1
(dp799
g3
F0.00377818560924173
sS'k12'
p800
F0.47858438980425627
sg5
F1.983645567238292
sS'zrS'
p801
F50.0
sS'zrR'
p802
F804.9900724936892
sg8
F0.33709879210228233
sS'res2'
p803
F1.0
sS's0R'
p804
F0.3969449917272757
sS'res1'
p805
F1.0
sS'storageR'
p806
F100.0
sS'gz'
p807
g14
sS's0S'
p808
F0.19
sS'k1'
p809
F0.2731311872058606
sS'stR'
p810
F0.48327450343086387
sS'stS'
p811
F0.6
sS'nR'
p812
F0.02702235402336506
sS'nS'
p813
F0.4
sS'storageS'
p814
F1.0
sS'vz'
p815
g23
ssa(dp816
I1
(dp817
g3
F0.0028326705929500756
sg800
F0.31072908793890414
sg5
F2.0699175532105807
sg801
F50.0
sg802
F1096.9606481610952
sg8
F0.2521026392729667
sg803
F1.0
sg804
F0.0007787749835151292
sg805
F1.0
sg806
F100.0
sg807
g14
sg808
F0.19
sg809
F0.3972289742205321
sg810
F0.15171629204246095
sg811
F0.6
sg812
F0.012417788334033616
sg813
F0.4
sg814
F1.0
sg815
g23
ssa(dp818
I1
(dp819
g3
F0.0011339497974804157
sg800
F0.36599581435618467
sg5
F2.353838621121857
sg801
F50.0
sg802
F909.7156386784918
sg8
F0.5171110211933283
sg803
F1.0
sg804
F0.3564419748803076
sg805
F1.0
sg806
F100.0
sg807
g14
sg808
F0.19
sg809
F0.37514648931797234
sg810
F0.3628474194947725
sg811
F0.6
sg812
F0.19110544553753017
sg813
F0.4
sg814
F1.0
sg815
g23
ssa(dp820
I1
(dp821
g3
F0.0010483891851110825
sg800
F0.3669785573365171
sg5
F2.446575766010956
sg801
F50.0
sg802
F1144.0433298962882
sg8
F0.5529995257947786
sg803
F1.0
sg804
F0.09790878584170715
sg805
F1.0
sg806
F100.0
sg807
g14
sg808
F0.19
sg809
F0.38409033869923337
sg810
F0.12500563658004024
sg811
F0.6
sg812
F0.0182878616185402
sg813
F0.4
sg814
F1.0
sg815
g23
ssa(dp822
I1
(dp823
g3
F0.0034193401688176733
sg800
F0.3535779462470297
sg5
F2.1122797864143408
sg801
F50.0
sg802
F524.5794120276435
sg8
F0.1935730406304546
sg803
F1.0
sg804
F0.3350508607753873
sg805
F1.0
sg806
F100.0
sg807
g14
sg808
F0.19
sg809
F0.3797153784851107
sg810
F0.3938456890083133
sg811
F0.6
sg812
F0.11505789809893459
sg813
F0.4
sg814
F1.0
sg815
g23
ssa(dp824
I1
(dp825
g3
F0.002274124053564631
sg800
F0.385706087548215
sg5
F2.0769001231629853
sg801
F50.0
sg802
F885.5048039531675
sg8
F0.2697060363223929
sg803
F1.0
sg804
F0.017898499959327997
sg805
F1.0
sg806
F100.0
sg807
g14
sg808
F0.19
sg809
F0.2517519194671178
sg810
F0.2375614111097634
sg811
F0.6
sg812
F0.01648502904993994
sg813
F0.4
sg814
F1.0
sg815
g23
ssa(dp826
I1
(dp827
g3
F0.0029201025803896386
sg800
F0.47877645521399187
sg5
F1.9594706141587823
sg801
F50.0
sg802
F610.9776801531613
sg8
F0.8862706347090793
sg803
F1.0
sg804
F0.39480376157263325
sg805
F1.0
sg806
F100.0
sg807
g14
sg808
F0.19
sg809
F0.2878052791372688
sg810
F0.20173569973573688
sg811
F0.6
sg812
F0.33849187262718855
sg813
F0.4
sg814
F1.0
sg815
g23
ssa(dp828
I1
(dp829
g3
F0.0019166484916571583
sg800
F0.339792871677147
sg5
F2.1910666220498163
sg801
F50.0
sg802
F1169.871867372895
sg8
F0.276303476470946
sg803
F1.0
sg804
F0.15563399963972177
sg805
F1.0
sg806
F100.0
sg807
g14
sg808
F0.19
sg809
F0.23018118506532287
sg810
F0.23892832026392644
sg811
F0.6
sg812
F0.03593966270865212
sg813
F0.4
sg814
F1.0
sg815
g23
ssa(dp830
I1
(dp831
g3
F0.003494043527886362
sg800
F0.36845672350907166
sg5
F1.9816935068736312
sg801
F50.0
sg802
F878.5855355581716
sg8
F0.8382377949142784
sg803
F1.0
sg804
F0.3593452731043284
sg805
F1.0
sg806
F100.0
sg807
g14
sg808
F0.19
sg809
F0.3705738780411418
sg810
F0.34544029716901337
sg811
F0.6
sg812
F0.24515507640569537
sg813
F0.4
sg814
F1.0
sg815
g23
ssa(dp832
I1
(dp833
g3
F0.0029940463054352385
sg800
F0.3825229390215705
sg5
F2.1146541176797253
sg801
F50.0
sg802
F623.9570064262879
sg8
F0.3648420143233069
sg803
F1.0
sg804
F0.2297182383517185
sg805
F1.0
sg806
F100.0
sg807
g14
sg808
F0.19
sg809
F0.31635562787160043
sg810
F0.2632259194500729
sg811
F0.6
sg812
F0.10246932227920261
sg813
F0.4
sg814
F1.0
sg815
g23
ssa(dp834
I1
(dp835
g3
F0.0014555022810216977
sS'k12'
p836
F0.4796577828949039
sg5
F2.4339913667618363
sS'zrS'
p837
F50.0
sS'zrR'
p838
F884.6405367743962
sg8
F0.219927065078904
sS'res2'
p839
F1.0
sS's0R'
p840
F0.14734317294376092
sS'res1'
p841
F1.0
sS'storageR'
p842
F100.0
sS'gz'
p843
g14
sS's0S'
p844
F0.19
sS'k1'
p845
F0.35599323756371304
sS'stR'
p846
F0.3043742354108683
sS'stS'
p847
F0.6
sS'nR'
p848
F0.02478575466924699
sS'nS'
p849
F0.4
sS'storageS'
p850
F1.0
sS'vz'
p851
g23
ssa(dp852
I1
(dp853
g3
F0.0016928546224530144
sg836
F0.413007429777701
sg5
F2.306958662505478
sg837
F50.0
sg838
F724.9852237226993
sg8
F0.23516851487948218
sg839
F1.0
sg840
F0.20863575465224354
sg841
F1.0
sg842
F100.0
sg843
g14
sg844
F0.19
sg845
F0.391070915128783
sg846
F0.23107270361174237
sg847
F0.6
sg848
F0.21235684540382596
sg849
F0.4
sg850
F1.0
sg851
g23
ssa(dp854
I1
(dp855
g3
F0.0014812229607375626
sg836
F0.43301563391369624
sg5
F2.374333487487287
sg837
F50.0
sg838
F1124.6206209872528
sg8
F0.8249321286317743
sg839
F1.0
sg840
F0.31964037654523914
sg841
F1.0
sg842
F100.0
sg843
g14
sg844
F0.19
sg845
F0.24238907643087024
sg846
F0.29817477189632
sg847
F0.6
sg848
F0.09572645533238214
sg849
F0.4
sg850
F1.0
sg851
g23
ssa(dp856
I1
(dp857
g3
F0.0017814003846818196
sg836
F0.35772657488078263
sg5
F2.2372058105248036
sg837
F50.0
sg838
F569.3714067943635
sg8
F0.2141705845699555
sg839
F1.0
sg840
F0.25461019410497976
sg841
F1.0
sg842
F100.0
sg843
g14
sg844
F0.19
sg845
F0.36770377275888
sg846
F0.4897447443354773
sg847
F0.6
sg848
F0.023206658717059337
sg849
F0.4
sg850
F1.0
sg851
g23
ssa(dp858
I1
(dp859
g3
F0.0011678446535962079
sg836
F0.4070351856280428
sg5
F2.4365237956574504
sg837
F50.0
sg838
F812.9042207332523
sg8
F0.7669144528732416
sg839
F1.0
sg840
F0.2906920855954975
sg841
F1.0
sg842
F100.0
sg843
g14
sg844
F0.19
sg845
F0.36876376851068954
sg846
F0.30123383257330294
sg847
F0.6
sg848
F0.020603045989546265
sg849
F0.4
sg850
F1.0
sg851
g23
ssa(dp860
I1
(dp861
g3
F0.0007599420572930859
sg836
F0.32106280611762766
sg5
F2.454380044446722
sg837
F50.0
sg838
F1032.641535318939
sg8
F0.7453294075385135
sg839
F1.0
sg840
F0.37451300000195437
sg841
F1.0
sg842
F100.0
sg843
g14
sg844
F0.19
sg845
F0.33718945585945637
sg846
F0.37685269041132763
sg847
F0.6
sg848
F0.25445582530437605
sg849
F0.4
sg850
F1.0
sg851
g23
ssa(dp862
I1
(dp863
g3
F0.0012984111755361195
sg836
F0.4108345131696917
sg5
F2.4923058112110685
sg837
F50.0
sg838
F849.0004434133466
sg8
F0.8060615126803874
sg839
F1.0
sg840
F0.3190733176761643
sg841
F1.0
sg842
F100.0
sg843
g14
sg844
F0.19
sg845
F0.35197731440478125
sg846
F0.28050056106842175
sg847
F0.6
sg848
F0.24130449762762932
sg849
F0.4
sg850
F1.0
sg851
g23
ssa(dp864
I1
(dp865
g3
F0.0012106263864756722
sg836
F0.36914107883222047
sg5
F2.3579443592620946
sg837
F50.0
sg838
F1010.0443736861923
sg8
F0.8796001374815731
sg839
F1.0
sg840
F0.29887082234784323
sg841
F1.0
sg842
F100.0
sg843
g14
sg844
F0.19
sg845
F0.2954936095024226
sg846
F0.23246459271783318
sg847
F0.6
sg848
F0.3498770616039962
sg849
F0.4
sg850
F1.0
sg851
g23
ssa(dp866
I1
(dp867
g3
F0.001290855256345021
sg836
F0.39563460303221737
sg5
F2.362279806019713
sg837
F50.0
sg838
F1092.8134099498816
sg8
F0.858563183983338
sg839
F1.0
sg840
F0.1553006386780328
sg841
F1.0
sg842
F100.0
sg843
g14
sg844
F0.19
sg845
F0.3326392091088525
sg846
F0.17758328421230143
sg847
F0.6
sg848
F0.01852528225089907
sg849
F0.4
sg850
F1.0
sg851
g23
ssa(dp868
I1
(dp869
g3
F0.0022347627482558227
sg836
F0.3249174174367401
sg5
F2.094355108383516
sg837
F50.0
sg838
F724.4452954622263
sg8
F0.2845529675815853
sg839
F1.0
sg840
F0.2868348529174321
sg841
F1.0
sg842
F100.0
sg843
g14
sg844
F0.19
sg845
F0.28051140050238976
sg846
F0.2975275273341961
sg847
F0.6
sg848
F0.3431285809033152
sg849
F0.4
sg850
F1.0
sg851
g23
ssa.