(lp0
(dp1
I1
(dp2
S'a'
p3
F0.003170339429625575
sS'storageGZ'
p4
F2.0
sS'b'
p5
F2.0921851251937538
sS'k12'
p6
F0.614137477080129
sS'res2'
p7
F1.0
sS'res1'
p8
F1.0
sS'gz'
p9
cgroundwaterZone
LinearToNonlinearReservoir
p10
sS'n'
p11
F0.21767358223148536
sS'k1'
p12
F0.282855031665051
sS'eta'
p13
F1.0
sS'storageVZ'
p14
F1.0
sS'alpha'
p15
F0.6196875718358588
sS'vz'
p16
cvadoseZone
PorporatoPreferentialVadoseZone
p17
sS'st'
p18
F0.3768110159677206
sS's0'
p19
F0.21879190468359871
sS'zr'
p20
F1162.9176828738
ssa(dp21
I1
(dp22
g3
F0.004221577389797349
sg4
F2.0
sg5
F1.9196995756823378
sg6
F0.5254861687235457
sg7
F1.0
sg8
F1.0
sg9
g10
sg11
F0.5137077191494764
sg12
F0.21522703568597268
sg13
F1.0
sg14
F1.0
sg15
F0.5268596599940655
sg16
g17
sg18
F0.3980744545598246
sg19
F0.3098702897720751
sg20
F867.4166194538341
ssa(dp23
I1
(dp24
g3
F0.0019042358558353555
sg4
F2.0
sg5
F2.2447603041806063
sg6
F0.7011695502880472
sg7
F1.0
sg8
F1.0
sg9
g10
sg11
F0.1743129660106269
sg12
F0.2653283451516647
sg13
F1.0
sg14
F1.0
sg15
F0.6085666365588622
sg16
g17
sg18
F0.5253147920195078
sg19
F0.2982400084350937
sg20
F1010.8739355204978
ssa(dp25
I1
(dp26
g3
F0.0036176105440168566
sg4
F2.0
sg5
F1.9884671106971823
sg6
F0.5254041711225538
sg7
F1.0
sg8
F1.0
sg9
g10
sg11
F0.05709815490212115
sg12
F0.41352593699441836
sg13
F1.0
sg14
F1.0
sg15
F0.5293088594492996
sg16
g17
sg18
F0.7184258223482615
sg19
F0.2330746556230035
sg20
F1119.7549648782915
ssa(dp27
I1
(dp28
g3
F0.005106620542413396
sg4
F2.0
sg5
F1.811688194335313
sg6
F0.28556688227841553
sg7
F1.0
sg8
F1.0
sg9
g10
sg11
F0.48149768075016264
sg12
F0.24528733569854305
sg13
F1.0
sg14
F1.0
sg15
F0.2783754641420549
sg16
g17
sg18
F0.4066329268776985
sg19
F0.31000021722945376
sg20
F523.134258338724
ssa(dp29
I1
(dp30
g3
F0.0024369547742408145
sg4
F2.0
sg5
F2.2787819012378856
sg6
F0.7945928180317625
sg7
F1.0
sg8
F1.0
sg9
g10
sg11
F0.18668633507803117
sg12
F0.2220085674897182
sg13
F1.0
sg14
F1.0
sg15
F0.7097132455658469
sg16
g17
sg18
F0.6045913836362501
sg19
F0.259473854506432
sg20
F673.7197744641483
ssa(dp31
I1
(dp32
g3
F0.0024790025473141286
sg4
F2.0
sg5
F2.2155467923934604
sg6
F0.5949283095137915
sg7
F1.0
sg8
F1.0
sg9
g10
sg11
F0.15888100684722345
sg12
F0.2324822268275245
sg13
F1.0
sg14
F1.0
sg15
F0.44398686080981414
sg16
g17
sg18
F0.9338906282336981
sg19
F0.3536394196350742
sg20
F516.088775943395
ssa(dp33
I1
(dp34
g3
F0.0026828833472406373
sg4
F2.0
sg5
F2.0855751274228136
sg6
F0.5850701281616126
sg7
F1.0
sg8
F1.0
sg9
g10
sg11
F0.32890735370612717
sg12
F0.27180798354764046
sg13
F1.0
sg14
F1.0
sg15
F0.4412303210829335
sg16
g17
sg18
F0.5742650703399487
sg19
F0.4705627226516714
sg20
F641.6333072990021
ssa(dp35
I1
(dp36
g3
F0.0018278025588967862
sg4
F2.0
sg5
F2.365564269589628
sg6
F0.36508184129857424
sg7
F1.0
sg8
F1.0
sg9
g10
sg11
F0.0999015758527409
sg12
F0.13944503491378768
sg13
F1.0
sg14
F1.0
sg15
F0.5708094689141905
sg16
g17
sg18
F0.44050192719520975
sg19
F0.07192341598204638
sg20
F1054.157351196077
ssa(dp37
I1
(dp38
g3
F0.0013033995890042041
sg4
F2.0
sg5
F2.317682347344486
sg6
F0.24479349044129628
sg7
F1.0
sg8
F1.0
sg9
g10
sg11
F0.4443474475135094
sg12
F0.13202269685026646
sg13
F1.0
sg14
F1.0
sg15
F0.4965779039200725
sg16
g17
sg18
F0.24418196075053736
sg19
F0.13406265836395515
sg20
F734.0105042596947
ssa(dp39
I1
(dp40
g3
F0.0033642673717085036
sS'storageGZ'
p41
F2.0
sg5
F1.873260091721825
sS'k12'
p42
F0.21392703837482063
sS'res2'
p43
F1.0
sS'res1'
p44
F1.0
sS'gz'
p45
g10
sg11
F0.0700623404457838
sS'k1'
p46
F0.24230922848481234
sS'eta'
p47
F1.0
sS'storageVZ'
p48
F1.0
sS'alpha'
p49
F0.24505598066467132
sS'vz'
p50
g17
sS'st'
p51
F0.8340328963471784
sS's0'
p52
F0.17911969872346228
sS'zr'
p53
F735.3264122800495
ssa(dp54
I1
(dp55
g3
F0.0026697798716500284
sg41
F2.0
sg5
F2.024547685822268
sg42
F0.2913885348221206
sg43
F1.0
sg44
F1.0
sg45
g10
sg11
F0.17798818745653638
sg46
F0.18406692064371116
sg47
F1.0
sg48
F1.0
sg49
F0.31721325615411183
sg50
g17
sg51
F0.32128641055173546
sg52
F0.14202714321468257
sg53
F695.9407035779743
ssa(dp56
I1
(dp57
g3
F0.002614861246345567
sg41
F2.0
sg5
F2.0868323253105627
sg42
F0.4355314101623234
sg43
F1.0
sg44
F1.0
sg45
g10
sg11
F0.15798484379616207
sg46
F0.36350185684447917
sg47
F1.0
sg48
F1.0
sg49
F0.29888078762911635
sg50
g17
sg51
F0.3321434280328356
sg52
F0.06426214433355804
sg53
F943.607438335576
ssa(dp58
I1
(dp59
g3
F0.0029538251832787357
sg41
F2.0
sg5
F2.0006191714363974
sg42
F0.7147870981985411
sg43
F1.0
sg44
F1.0
sg45
g10
sg11
F0.31831599780973974
sg46
F0.29357771620075146
sg47
F1.0
sg48
F1.0
sg49
F0.5687912233525597
sg50
g17
sg51
F0.6361364144845542
sg52
F0.407409178436565
sg53
F568.1511645038288
ssa(dp60
I1
(dp61
g3
F0.002289570582440909
sg41
F2.0
sg5
F2.048800039404832
sg42
F0.410183556031788
sg43
F1.0
sg44
F1.0
sg45
g10
sg11
F0.2500850708045999
sg46
F0.24470725836842305
sg47
F1.0
sg48
F1.0
sg49
F0.3866257145343263
sg50
g17
sg51
F0.41820264829603737
sg52
F0.2899876998196428
sg53
F1057.8982546419902
ssa(dp62
I1
(dp63
g3
F0.0012717179648697803
sg41
F2.0
sg5
F2.2830957636319074
sg42
F0.6267708966897605
sg43
F1.0
sg44
F1.0
sg45
g10
sg11
F0.23320950372153204
sg46
F0.25390279837104796
sg47
F1.0
sg48
F1.0
sg49
F0.5209417967655179
sg50
g17
sg51
F0.6324009888514291
sg52
F0.4053616026088426
sg53
F629.2975714047095
ssa(dp64
I1
(dp65
g3
F0.0009260089444993558
sg41
F2.0
sg5
F2.3559237433100706
sg42
F0.5209129177233031
sg43
F1.0
sg44
F1.0
sg45
g10
sg11
F0.3904502375013404
sg46
F0.40764234576834313
sg47
F1.0
sg48
F1.0
sg49
F0.40221102959022326
sg50
g17
sg51
F0.4442298917842512
sg52
F0.3456940060923157
sg53
F716.246675408206
ssa(dp66
I1
(dp67
g3
F0.0019803415553055455
sg41
F2.0
sg5
F1.9768524853128349
sg42
F0.659793471504869
sg43
F1.0
sg44
F1.0
sg45
g10
sg11
F0.203651674864606
sg46
F0.47976099970136116
sg47
F1.0
sg48
F1.0
sg49
F0.23601081652175188
sg50
g17
sg51
F0.3261779011613068
sg52
F0.0659131639187327
sg53
F505.67418729620135
ssa(dp68
I1
(dp69
g3
F0.002105841214775593
sg41
F2.0
sg5
F2.2771640718323534
sg42
F0.7907155197006847
sg43
F1.0
sg44
F1.0
sg45
g10
sg11
F0.09494344439175223
sg46
F0.19772496285679791
sg47
F1.0
sg48
F1.0
sg49
F0.4429667891034003
sg50
g17
sg51
F0.8457186233682857
sg52
F0.1340844096139655
sg53
F506.46235112257074
ssa(dp70
I1
(dp71
g3
F0.0015954502045953502
sg41
F2.0
sg5
F2.262338044533841
sg42
F0.2771091490884066
sg43
F1.0
sg44
F1.0
sg45
g10
sg11
F0.22337499169191
sg46
F0.268635444219798
sg47
F1.0
sg48
F1.0
sg49
F0.32080809233826796
sg50
g17
sg51
F0.1638581520573189
sg52
F0.04920337184483964
sg53
F1076.7493950575129
ssa(dp72
I1
(dp73
g3
F0.001875162666879932
sS'storageGZ'
p74
F2.0
sg5
F2.2283754007094223
sS'k12'
p75
F0.6364753790792298
sS'res2'
p76
F1.0
sS'res1'
p77
F1.0
sS'gz'
p78
g10
sg11
F0.22789488821658216
sS'k1'
p79
F0.17436276410319368
sS'eta'
p80
F1.0
sS'storageVZ'
p81
F1.0
sS'alpha'
p82
F0.3850316430278973
sS'vz'
p83
g17
sS'st'
p84
F0.40401046463309964
sS's0'
p85
F0.22872211189168506
sS'zr'
p86
F744.8701237500843
ssa(dp87
I1
(dp88
g3
F0.002216545320565362
sg74
F2.0
sg5
F2.0565866866249194
sg75
F0.7792203611320376
sg76
F1.0
sg77
F1.0
sg78
g10
sg11
F0.14080089078713415
sg79
F0.24977948501708763
sg80
F1.0
sg81
F1.0
sg82
F0.3917007333831669
sg83
g17
sg84
F0.6709375483419584
sg85
F0.37138760612691735
sg86
F554.2982488686391
ssa(dp89
I1
(dp90
g3
F0.0017913162914043716
sg74
F2.0
sg5
F2.2970589475731327
sg75
F0.5045232111867508
sg76
F1.0
sg77
F1.0
sg78
g10
sg11
F0.13342874355401063
sg79
F0.13412922799453997
sg80
F1.0
sg81
F1.0
sg82
F0.49619081448167207
sg83
g17
sg84
F0.7375134013549084
sg85
F0.22176587547818688
sg86
F648.7741463774647
ssa(dp91
I1
(dp92
g3
F0.0016286039279096373
sg74
F2.0
sg5
F2.2605474837788884
sg75
F0.5628104629209418
sg76
F1.0
sg77
F1.0
sg78
g10
sg11
F0.173486513904884
sg79
F0.23483375889365493
sg80
F1.0
sg81
F1.0
sg82
F0.46443101844687046
sg83
g17
sg84
F0.5559666812325867
sg85
F0.41449582768149934
sg86
F1158.338155070811
ssa(dp93
I1
(dp94
g3
F0.002402796909447202
sg74
F2.0
sg5
F2.142370105896897
sg75
F0.7108831973632018
sg76
F1.0
sg77
F1.0
sg78
g10
sg11
F0.5157968750908463
sg79
F0.3935041357457187
sg80
F1.0
sg81
F1.0
sg82
F0.25352793593533174
sg83
g17
sg84
F0.532580399470567
sg85
F0.40991249329049545
sg86
F568.5729453144838
ssa(dp95
I1
(dp96
g3
F0.001547453897519933
sg74
F2.0
sg5
F2.081773759775346
sg75
F0.1246763922256268
sg76
F1.0
sg77
F1.0
sg78
g10
sg11
F0.2405285562392645
sg79
F0.17797429415245697
sg80
F1.0
sg81
F1.0
sg82
F0.2839076530034679
sg83
g17
sg84
F0.40249173207145295
sg85
F0.15770871029259959
sg86
F712.8484998779848
ssa(dp97
I1
(dp98
g3
F0.004051133015228322
sg74
F2.0
sg5
F1.921237871559093
sg75
F0.7343455616097248
sg76
F1.0
sg77
F1.0
sg78
g10
sg11
F0.05686559814594382
sg79
F0.24767425526478504
sg80
F1.0
sg81
F1.0
sg82
F0.33050980023118864
sg83
g17
sg84
F0.5845142671109786
sg85
F0.022076032724837436
sg86
F1173.6035316911102
ssa(dp99
I1
(dp100
g3
F0.0013136702652903408
sg74
F2.0
sg5
F2.2494179780438897
sg75
F0.4958700073862508
sg76
F1.0
sg77
F1.0
sg78
g10
sg11
F0.06448640630470544
sg79
F0.14063624140118788
sg80
F1.0
sg81
F1.0
sg82
F0.28730667488575073
sg83
g17
sg84
F0.7067101933766036
sg85
F0.1685874154932731
sg86
F1035.214894485379
ssa(dp101
I1
(dp102
g3
F0.0018283591327094683
sg74
F2.0
sg5
F2.17797142685638
sg75
F0.25151550079420615
sg76
F1.0
sg77
F1.0
sg78
g10
sg11
F0.12231174195128003
sg79
F0.15767424735868202
sg80
F1.0
sg81
F1.0
sg82
F0.3438882661379508
sg83
g17
sg84
F0.8742412719442985
sg85
F0.46136505050760224
sg86
F816.0830208650593
ssa(dp103
I1
(dp104
g3
F0.0024887679635423937
sg74
F2.0
sg5
F2.066031313272288
sg75
F0.48989553319905915
sg76
F1.0
sg77
F1.0
sg78
g10
sg11
F0.11205507109627787
sg79
F0.39195331371163816
sg80
F1.0
sg81
F1.0
sg82
F0.44223157851126527
sg83
g17
sg84
F0.8730116299549074
sg85
F0.34427087724898
sg86
F596.5363179373386
ssa(dp105
I1
(dp106
g3
F0.003108765238539828
sS'storageGZ'
p107
F2.0
sg5
F1.86529937458323
sS'k12'
p108
F0.1987667275552888
sS'res2'
p109
F1.0
sS'res1'
p110
F1.0
sS'gz'
p111
g10
sg11
F0.3992951409731248
sS'k1'
p112
F0.18729910435353808
sS'eta'
p113
F1.0
sS'storageVZ'
p114
F1.0
sS'alpha'
p115
F0.29677840425907176
sS'vz'
p116
g17
sS'st'
p117
F0.22509042175555904
sS's0'
p118
F0.1305611503791395
sS'zr'
p119
F869.2738313654266
ssa(dp120
I1
(dp121
g3
F0.002204696932917557
sg107
F2.0
sg5
F2.0573889180238716
sg108
F0.21719712447261502
sg109
F1.0
sg110
F1.0
sg111
g10
sg11
F0.18911280504562616
sg112
F0.3065501785547032
sg113
F1.0
sg114
F1.0
sg115
F0.2019700888113784
sg116
g17
sg117
F0.6460278956351345
sg118
F0.443096899877171
sg119
F826.4866817963433
ssa(dp122
I1
(dp123
g3
F0.002144185286120855
sg107
F2.0
sg5
F2.089298887823099
sg108
F0.6931685991454583
sg109
F1.0
sg110
F1.0
sg111
g10
sg11
F0.12384887345473532
sg112
F0.411065097778236
sg113
F1.0
sg114
F1.0
sg115
F0.440930096543307
sg116
g17
sg117
F0.7879229451528131
sg118
F0.41041045075793325
sg119
F618.56437818733
ssa(dp124
I1
(dp125
g3
F0.004260244725782078
sg107
F2.0
sg5
F1.8625768919114882
sg108
F0.37361944642712425
sg109
F1.0
sg110
F1.0
sg111
g10
sg11
F0.21878403627260412
sg112
F0.3979198091033409
sg113
F1.0
sg114
F1.0
sg115
F0.35944991287634004
sg116
g17
sg117
F0.39361064082366193
sg118
F0.18127321163221083
sg119
F668.9535510592178
ssa(dp126
I1
(dp127
g3
F0.002074111769440487
sg107
F2.0
sg5
F2.0751238281767868
sg108
F0.5933346160792128
sg109
F1.0
sg110
F1.0
sg111
g10
sg11
F0.2944007079295171
sg112
F0.3252588752352177
sg113
F1.0
sg114
F1.0
sg115
F0.44480144485043904
sg116
g17
sg117
F0.14777413311000676
sg118
F0.044319990795803066
sg119
F1103.0338827345695
ssa(dp128
I1
(dp129
g3
F0.001808935244047101
sg107
F2.0
sg5
F2.2831579126379156
sg108
F0.2877476375159225
sg109
F1.0
sg110
F1.0
sg111
g10
sg11
F0.44897574130834905
sg112
F0.2518205772376808
sg113
F1.0
sg114
F1.0
sg115
F0.5070890950105253
sg116
g17
sg117
F0.5760444144598482
sg118
F0.4758828383486652
sg119
F1026.2839657169718
ssa(dp130
I1
(dp131
g3
F0.004231074667493999
sg107
F2.0
sg5
F1.8664484336202682
sg108
F0.4238811885564668
sg109
F1.0
sg110
F1.0
sg111
g10
sg11
F0.0804232752381465
sg112
F0.3634137642203098
sg113
F1.0
sg114
F1.0
sg115
F0.24784704875447489
sg116
g17
sg117
F0.5062138112123743
sg118
F0.08415763891737388
sg119
F785.1002751748515
ssa(dp132
I1
(dp133
g3
F0.004238767729858586
sg107
F2.0
sg5
F2.025068759442625
sg108
F0.7357332686511321
sg109
F1.0
sg110
F1.0
sg111
g10
sg11
F0.40790678278581016
sg112
F0.3015428359158196
sg113
F1.0
sg114
F1.0
sg115
F0.41359291111541185
sg116
g17
sg117
F0.485046784778155
sg118
F0.29095087374165945
sg119
F638.012065090531
ssa(dp134
I1
(dp135
g3
F0.0016090914479323798
sg107
F2.0
sg5
F2.170157963367286
sg108
F0.45587014780436913
sg109
F1.0
sg110
F1.0
sg111
g10
sg11
F0.1196232218120262
sg112
F0.4790225311154772
sg113
F1.0
sg114
F1.0
sg115
F0.3194283216903393
sg116
g17
sg117
F0.8433954704973401
sg118
F0.2958157572410611
sg119
F539.1940448248243
ssa(dp136
I1
(dp137
g3
F0.0020619166011321775
sg107
F2.0
sg5
F2.034932296229933
sg108
F0.6410980008148849
sg109
F1.0
sg110
F1.0
sg111
g10
sg11
F0.3861698180627121
sg112
F0.31213081521771413
sg113
F1.0
sg114
F1.0
sg115
F0.3074862611892165
sg116
g17
sg117
F0.34485465556559003
sg118
F0.26919421906019037
sg119
F1088.1678662576303
ssa(dp138
I1
(dp139
g3
F0.003543788293605938
sS'storageGZ'
p140
F2.0
sg5
F1.8532178405933202
sS'k12'
p141
F0.4034160765888612
sS'res2'
p142
F1.0
sS'res1'
p143
F1.0
sS'gz'
p144
g10
sg11
F0.10818548217824847
sS'k1'
p145
F0.38998942332614545
sS'eta'
p146
F1.0
sS'storageVZ'
p147
F1.0
sS'alpha'
p148
F0.43237724368465985
sS'vz'
p149
g17
sS'st'
p150
F0.7130477215967426
sS's0'
p151
F0.4938769832974082
sS'zr'
p152
F1090.9355365062017
ssa(dp153
I1
(dp154
g3
F0.0023556996366219532
sg140
F2.0
sg5
F2.016193709892033
sg141
F0.565365449542484
sg142
F1.0
sg143
F1.0
sg144
g10
sg11
F0.06637275776131679
sg145
F0.27298523265667907
sg146
F1.0
sg147
F1.0
sg148
F0.3548991336690695
sg149
g17
sg150
F0.7230044004014743
sg151
F0.3008590035532387
sg152
F871.1285086726352
ssa(dp155
I1
(dp156
g3
F0.001862488739052684
sg140
F2.0
sg5
F2.02232651766577
sg141
F0.5836800834866334
sg142
F1.0
sg143
F1.0
sg144
g10
sg11
F0.14896612594400216
sg145
F0.30597636295681696
sg146
F1.0
sg147
F1.0
sg148
F0.44743132411843595
sg149
g17
sg150
F0.4087883541283889
sg151
F0.11592613794270806
sg152
F711.411766042728
ssa(dp157
I1
(dp158
g3
F0.0009263371711350923
sg140
F2.0
sg5
F2.3499661351491894
sg141
F0.7019226545896755
sg142
F1.0
sg143
F1.0
sg144
g10
sg11
F0.07077236684006019
sg145
F0.39063783467041774
sg146
F1.0
sg147
F1.0
sg148
F0.5039576523593081
sg149
g17
sg150
F0.6476578496968745
sg151
F0.18456189194970912
sg152
F839.3193430969545
ssa(dp159
I1
(dp160
g3
F0.0008720111077621384
sg140
F2.0
sg5
F2.483489200155648
sg141
F0.7536518098356337
sg142
F1.0
sg143
F1.0
sg144
g10
sg11
F0.07145956678944586
sg145
F0.13175069719364033
sg146
F1.0
sg147
F1.0
sg148
F0.7139034241467794
sg149
g17
sg150
F0.9097955305964531
sg151
F0.4899462391841598
sg152
F812.3059459558527
ssa(dp161
I1
(dp162
g3
F0.0030816040194372772
sg140
F2.0
sg5
F1.8297871038689213
sg141
F0.17278839330703183
sg142
F1.0
sg143
F1.0
sg144
g10
sg11
F0.15884931178907416
sg145
F0.1655665677653294
sg146
F1.0
sg147
F1.0
sg148
F0.19804297685901812
sg149
g17
sg150
F0.6195728422791855
sg151
F0.27411476371399657
sg152
F730.7442216643848
ssa(dp163
I1
(dp164
g3
F0.0025111083222297214
sg140
F2.0
sg5
F2.013686849038181
sg141
F0.7001097042170502
sg142
F1.0
sg143
F1.0
sg144
g10
sg11
F0.38185155386665764
sg145
F0.20513126443609608
sg146
F1.0
sg147
F1.0
sg148
F0.2636940644196394
sg149
g17
sg150
F0.30884971007047635
sg151
F0.2548180479949447
sg152
F1161.900375812123
ssa(dp165
I1
(dp166
g3
F0.0010257930815903843
sg140
F2.0
sg5
F2.4585406363388973
sg141
F0.43004542526568873
sg142
F1.0
sg143
F1.0
sg144
g10
sg11
F0.21647817660248458
sg145
F0.22147248179684753
sg146
F1.0
sg147
F1.0
sg148
F0.43677137413094824
sg149
g17
sg150
F0.29300205651702305
sg151
F0.1495200946121979
sg152
F1044.940354497799
ssa(dp167
I1
(dp168
g3
F0.0011267868832226496
sg140
F2.0
sg5
F2.2172215849029846
sg141
F0.31890076012120055
sg142
F1.0
sg143
F1.0
sg144
g10
sg11
F0.06997825623266682
sg145
F0.388217242577726
sg146
F1.0
sg147
F1.0
sg148
F0.20966644138653895
sg149
g17
sg150
F0.8926825292138344
sg151
F0.3149113014125722
sg152
F501.67997922331017
ssa(dp169
I1
(dp170
g3
F0.0018654926566482417
sg140
F2.0
sg5
F2.111386984787852
sg141
F0.45229047240095793
sg142
F1.0
sg143
F1.0
sg144
g10
sg11
F0.05467833225509347
sg145
F0.45829322153164836
sg146
F1.0
sg147
F1.0
sg148
F0.44026292824334057
sg149
g17
sg150
F0.9159575226603488
sg151
F0.1259134992145644
sg152
F812.3677495699003
ssa(dp171
I1
(dp172
g3
F0.0038401862090914492
sS'storageGZ'
p173
F2.0
sg5
F1.8772752655099294
sS'k12'
p174
F0.6125159346365067
sS'res2'
p175
F1.0
sS'res1'
p176
F1.0
sS'gz'
p177
g10
sg11
F0.33727850193898673
sS'k1'
p178
F0.22798536973998634
sS'eta'
p179
F1.0
sS'storageVZ'
p180
F1.0
sS'alpha'
p181
F0.4965001739967861
sS'vz'
p182
g17
sS'st'
p183
F0.11973155456144534
sS's0'
p184
F0.0063542794277886006
sS'zr'
p185
F660.5316798852709
ssa(dp186
I1
(dp187
g3
F0.003586852997860475
sg173
F2.0
sg5
F1.8777514407366886
sg174
F0.3859531140308075
sg175
F1.0
sg176
F1.0
sg177
g10
sg11
F0.5028455542386033
sg178
F0.2046504557146966
sg179
F1.0
sg180
F1.0
sg181
F0.46156495460570623
sg182
g17
sg183
F0.40119757528217714
sg184
F0.35663196824107907
sg185
F969.5142186167942
ssa(dp188
I1
(dp189
g3
F0.001385094572934341
sg173
F2.0
sg5
F2.41108989228381
sg174
F0.7849841219252641
sg175
F1.0
sg176
F1.0
sg177
g10
sg11
F0.45319139919830675
sg178
F0.17213959445228177
sg179
F1.0
sg180
F1.0
sg181
F0.7488319857223578
sg182
g17
sg183
F0.5225784625886697
sg184
F0.37734788640401545
sg185
F563.576112559564
ssa(dp190
I1
(dp191
g3
F0.005231525384592647
sg173
F2.0
sg5
F1.8005585326461933
sg174
F0.7128561098892956
sg175
F1.0
sg176
F1.0
sg177
g10
sg11
F0.13504753815367831
sg178
F0.24600922703893435
sg179
F1.0
sg180
F1.0
sg181
F0.5622677411547674
sg182
g17
sg183
F0.8862782586669605
sg184
F0.3822942249745753
sg185
F775.7340290848741
ssa(dp192
I1
(dp193
g3
F0.0006976299864464621
sg173
F2.0
sg5
F2.2862020777832583
sg174
F0.1483482991275386
sg175
F1.0
sg176
F1.0
sg177
g10
sg11
F0.09822533078748312
sg178
F0.19713007595406223
sg179
F1.0
sg180
F1.0
sg181
F0.20538799512196682
sg182
g17
sg183
F0.7284847281683883
sg184
F0.39526012124925064
sg185
F1023.5946921017674
ssa(dp194
I1
(dp195
g3
F0.004852820805674014
sg173
F2.0
sg5
F1.8112882845258387
sg174
F0.5023549373040544
sg175
F1.0
sg176
F1.0
sg177
g10
sg11
F0.5432352924335633
sg178
F0.4024141457760907
sg179
F1.0
sg180
F1.0
sg181
F0.38611525817759157
sg182
g17
sg183
F0.4791259805238882
sg184
F0.4215220026345805
sg185
F922.9621331220362
ssa(dp196
I1
(dp197
g3
F0.0010234150480522798
sg173
F2.0
sg5
F2.4408839841181544
sg174
F0.6647414804552177
sg175
F1.0
sg176
F1.0
sg177
g10
sg11
F0.1203560574387372
sg178
F0.204066801017259
sg179
F1.0
sg180
F1.0
sg181
F0.4589324186848325
sg182
g17
sg183
F0.5395038946118198
sg184
F0.014489349228249848
sg185
F650.90403280434
ssa(dp198
I1
(dp199
g3
F0.006062221845927982
sg173
F2.0
sg5
F1.83935521894443
sg174
F0.7489471835850126
sg175
F1.0
sg176
F1.0
sg177
g10
sg11
F0.1325606399012636
sg178
F0.2836622209806633
sg179
F1.0
sg180
F1.0
sg181
F0.4491807896080499
sg182
g17
sg183
F0.5993035170575151
sg184
F0.09455176115201991
sg185
F579.0415148746858
ssa(dp200
I1
(dp201
g3
F0.0037085711684232206
sg173
F2.0
sg5
F2.0082468626276575
sg174
F0.48602360992007104
sg175
F1.0
sg176
F1.0
sg177
g10
sg11
F0.10615471903275608
sg178
F0.23033339241517864
sg179
F1.0
sg180
F1.0
sg181
F0.5778966296496705
sg182
g17
sg183
F0.9718179018807654
sg184
F0.2317199490120943
sg185
F527.2830504036889
ssa(dp202
I1
(dp203
g3
F0.005110494690419173
sg173
F2.0
sg5
F1.8993235015970138
sg174
F0.6190691155225706
sg175
F1.0
sg176
F1.0
sg177
g10
sg11
F0.32610230172306603
sg178
F0.29724949873179224
sg179
F1.0
sg180
F1.0
sg181
F0.5056818711834223
sg182
g17
sg183
F0.47401695892970686
sg184
F0.3077675062526306
sg185
F964.8179846447606
ssa(dp204
I1
(dp205
g3
F0.0012937423784034775
sS'storageGZ'
p206
F2.0
sg5
F2.28865558877796
sS'k12'
p207
F0.7573369749620122
sS'res2'
p208
F1.0
sS'res1'
p209
F1.0
sS'gz'
p210
g10
sg11
F0.3508463111440676
sS'k1'
p211
F0.22268995480123405
sS'eta'
p212
F1.0
sS'storageVZ'
p213
F1.0
sS'alpha'
p214
F0.4719407274334933
sS'vz'
p215
g17
sS'st'
p216
F0.3447214184839957
sS's0'
p217
F0.22982011911128142
sS'zr'
p218
F553.6451670073757
ssa(dp219
I1
(dp220
g3
F0.005279521885733702
sg206
F2.0
sg5
F1.8798633315983766
sg207
F0.5961066781299231
sg208
F1.0
sg209
F1.0
sg210
g10
sg11
F0.1613303749614498
sg211
F0.26506131270451094
sg212
F1.0
sg213
F1.0
sg214
F0.4581720234030167
sg215
g17
sg216
F0.8477515089637881
sg217
F0.3773838005768324
sg218
F702.1386179299475
ssa(dp221
I1
(dp222
g3
F0.0017352936414929522
sg206
F2.0
sg5
F2.193156742402438
sg207
F0.7764345179409605
sg208
F1.0
sg209
F1.0
sg210
g10
sg11
F0.15431688570613444
sg211
F0.3870487516770033
sg212
F1.0
sg213
F1.0
sg214
F0.328293007786311
sg215
g17
sg216
F0.3138720440871426
sg217
F0.11918637020182604
sg218
F705.838479899067
ssa(dp223
I1
(dp224
g3
F0.0016224211301423673
sg206
F2.0
sg5
F2.398058553349371
sg207
F0.7084806445147559
sg208
F1.0
sg209
F1.0
sg210
g10
sg11
F0.10343581515578519
sg211
F0.1075052309364216
sg212
F1.0
sg213
F1.0
sg214
F0.5735759893345123
sg215
g17
sg216
F0.8503629249764352
sg217
F0.26254787559111337
sg218
F777.3597372870582
ssa(dp225
I1
(dp226
g3
F0.003162926232455396
sg206
F2.0
sg5
F2.108042824385806
sg207
F0.5347428740153042
sg208
F1.0
sg209
F1.0
sg210
g10
sg11
F0.16181805672919744
sg211
F0.2330544048154754
sg212
F1.0
sg213
F1.0
sg214
F0.5913612176401419
sg215
g17
sg216
F0.6596637216641573
sg217
F0.4065599864895976
sg218
F784.580905601067
ssa(dp227
I1
(dp228
g3
F0.0010330099103678554
sg206
F2.0
sg5
F2.242961931369364
sg207
F0.656068173663699
sg208
F1.0
sg209
F1.0
sg210
g10
sg11
F0.2582678823460948
sg211
F0.4445555720589519
sg212
F1.0
sg213
F1.0
sg214
F0.32024352459982636
sg215
g17
sg216
F0.3508086916488915
sg217
F0.19732355553330694
sg218
F837.9656306246295
ssa(dp229
I1
(dp230
g3
F0.0032551448999991344
sg206
F2.0
sg5
F1.8766945141549976
sg207
F0.7280749868277052
sg208
F1.0
sg209
F1.0
sg210
g10
sg11
F0.2782421183945522
sg211
F0.44720165268278567
sg212
F1.0
sg213
F1.0
sg214
F0.3530140000494772
sg215
g17
sg216
F0.3133748133238031
sg217
F0.25106035506490737
sg218
F925.2843856583293
ssa(dp231
I1
(dp232
g3
F0.004553642858097633
sg206
F2.0
sg5
F2.0556680356288517
sg207
F0.6725306680647553
sg208
F1.0
sg209
F1.0
sg210
g10
sg11
F0.344713668788246
sg211
F0.2454142027646513
sg212
F1.0
sg213
F1.0
sg214
F0.674310252943868
sg215
g17
sg216
F0.6084181292968663
sg217
F0.45938748002431806
sg218
F793.2416659978556
ssa(dp233
I1
(dp234
g3
F0.0031411502865286217
sg206
F2.0
sg5
F1.880419122517634
sg207
F0.5583587562402481
sg208
F1.0
sg209
F1.0
sg210
g10
sg11
F0.1043489375845717
sg211
F0.25040358882850133
sg212
F1.0
sg213
F1.0
sg214
F0.3149724633799453
sg215
g17
sg216
F0.3936833097904302
sg217
F0.07432933659462687
sg218
F599.4920844011633
ssa(dp235
I1
(dp236
g3
F0.002035457578180771
sg206
F2.0
sg5
F2.125177985720962
sg207
F0.6778883396039992
sg208
F1.0
sg209
F1.0
sg210
g10
sg11
F0.16910306398967917
sg211
F0.31714779742696725
sg212
F1.0
sg213
F1.0
sg214
F0.49953677966876386
sg215
g17
sg216
F0.26823035505232046
sg217
F0.04420557400141095
sg218
F1139.6525874867168
ssa(dp237
I1
(dp238
g3
F0.0034829090273429185
sS'storageGZ'
p239
F2.0
sg5
F1.9097533363117805
sS'k12'
p240
F0.7259322616680511
sS'res2'
p241
F1.0
sS'res1'
p242
F1.0
sS'gz'
p243
g10
sg11
F0.5969117984176794
sS'k1'
p244
F0.2828582025156254
sS'eta'
p245
F1.0
sS'storageVZ'
p246
F1.0
sS'alpha'
p247
F0.4649203527245519
sS'vz'
p248
g17
sS'st'
p249
F0.5382712212092545
sS's0'
p250
F0.44823448911185265
sS'zr'
p251
F732.1687065284818
ssa(dp252
I1
(dp253
g3
F0.002594089157073838
sg239
F2.0
sg5
F1.9630432492622518
sg240
F0.22743791971620375
sg241
F1.0
sg242
F1.0
sg243
g10
sg11
F0.09095846707373834
sg244
F0.17987976847699022
sg245
F1.0
sg246
F1.0
sg247
F0.3086545696949534
sg248
g17
sg249
F0.7682200929540896
sg250
F0.26328596863250886
sg251
F869.0772551188171
ssa(dp254
I1
(dp255
g3
F0.00442248115371415
sg239
F2.0
sg5
F1.8274466102767006
sg240
F0.2878542661657905
sg241
F1.0
sg242
F1.0
sg243
g10
sg11
F0.5903572733187263
sg244
F0.2607788372325199
sg245
F1.0
sg246
F1.0
sg247
F0.5316816081722221
sg248
g17
sg249
F0.5544204482792884
sg250
F0.4167259302859084
sg251
F536.9956849968099
ssa(dp256
I1
(dp257
g3
F0.004039424804320846
sg239
F2.0
sg5
F1.9163535204154591
sg240
F0.5208514797140682
sg241
F1.0
sg242
F1.0
sg243
g10
sg11
F0.07287444992844193
sg244
F0.24480667487219188
sg245
F1.0
sg246
F1.0
sg247
F0.534944959948583
sg248
g17
sg249
F0.5333920542192534
sg250
F0.007406385672280302
sg251
F1066.3059268467498
ssa(dp258
I1
(dp259
g3
F0.0013903705712411478
sg239
F2.0
sg5
F2.2880453041325817
sg240
F0.4275021834052099
sg241
F1.0
sg242
F1.0
sg243
g10
sg11
F0.17885552968311275
sg244
F0.22022468361480418
sg245
F1.0
sg246
F1.0
sg247
F0.5931136436872612
sg248
g17
sg249
F0.76413885503762
sg250
F0.4631289926143524
sg251
F843.7386726538639
ssa(dp260
I1
(dp261
g3
F0.0026321070202433112
sg239
F2.0
sg5
F1.9877061043616
sg240
F0.37096700549437917
sg241
F1.0
sg242
F1.0
sg243
g10
sg11
F0.08232953449743022
sg244
F0.18813508300463355
sg245
F1.0
sg246
F1.0
sg247
F0.46037142893401595
sg248
g17
sg249
F0.5632621528298446
sg250
F0.17713744636193068
sg251
F1176.8826587404642
ssa(dp262
I1
(dp263
g3
F0.004149138884054004
sg239
F2.0
sg5
F1.9127632753570107
sg240
F0.22946521170089773
sg241
F1.0
sg242
F1.0
sg243
g10
sg11
F0.5476660250771712
sg244
F0.26568871020636
sg245
F1.0
sg246
F1.0
sg247
F0.4307552269518761
sg248
g17
sg249
F0.20573489144567322
sg250
F0.1329981395082689
sg251
F1015.9761096251048
ssa(dp264
I1
(dp265
g3
F0.0024186248455161877
sg239
F2.0
sg5
F2.2596054957174148
sg240
F0.6499359558017331
sg241
F1.0
sg242
F1.0
sg243
g10
sg11
F0.41947605949257877
sg244
F0.2737883730609867
sg245
F1.0
sg246
F1.0
sg247
F0.4817939962606041
sg248
g17
sg249
F0.5985787955586558
sg250
F0.45452432693090317
sg251
F997.6256250512203
ssa(dp266
I1
(dp267
g3
F0.0011798296412601473
sg239
F2.0
sg5
F2.31602424068909
sg240
F0.7605398000167826
sg241
F1.0
sg242
F1.0
sg243
g10
sg11
F0.07296698799675581
sg244
F0.4747844084333522
sg245
F1.0
sg246
F1.0
sg247
F0.4155186624153581
sg248
g17
sg249
F0.5741436839752336
sg250
F0.012335442852914602
sg251
F1057.7563599808786
ssa(dp268
I1
(dp269
g3
F0.003116121704219153
sg239
F2.0
sg5
F2.033498917705328
sg240
F0.4926821458042711
sg241
F1.0
sg242
F1.0
sg243
g10
sg11
F0.23252248320688335
sg244
F0.2953282502111095
sg245
F1.0
sg246
F1.0
sg247
F0.3466766570125034
sg248
g17
sg249
F0.5768828038832896
sg250
F0.3488866637603691
sg251
F800.9668974776338
ssa(dp270
I1
(dp271
g3
F0.0020009257987349447
sS'storageGZ'
p272
F2.0
sg5
F2.1593988299288545
sS'k12'
p273
F0.5430682289870955
sS'res2'
p274
F1.0
sS'res1'
p275
F1.0
sS'gz'
p276
g10
sg11
F0.063100645328179
sS'k1'
p277
F0.21054205947703136
sS'eta'
p278
F1.0
sS'storageVZ'
p279
F1.0
sS'alpha'
p280
F0.4068870447684259
sS'vz'
p281
g17
sS'st'
p282
F0.9377853311724329
sS's0'
p283
F0.3415132968443457
sS'zr'
p284
F561.4253421004191
ssa(dp285
I1
(dp286
g3
F0.0015601468860640393
sg272
F2.0
sg5
F2.2523647161714884
sg273
F0.6386270859166442
sg274
F1.0
sg275
F1.0
sg276
g10
sg11
F0.31437453841950386
sg277
F0.25774966588088305
sg278
F1.0
sg279
F1.0
sg280
F0.4227505174578614
sg281
g17
sg282
F0.2081469913831845
sg283
F0.12326903089584307
sg284
F695.5073291325267
ssa(dp287
I1
(dp288
g3
F0.003826368566638347
sg272
F2.0
sg5
F1.8931477332545303
sg273
F0.14836627358820031
sg274
F1.0
sg275
F1.0
sg276
g10
sg11
F0.5509913582269133
sg277
F0.15070053464295285
sg278
F1.0
sg279
F1.0
sg280
F0.2947605440320926
sg281
g17
sg282
F0.6063040090229919
sg283
F0.49679401560342434
sg284
F559.6477304104877
ssa(dp289
I1
(dp290
g3
F0.004544870643433105
sg272
F2.0
sg5
F1.838771149094106
sg273
F0.6371918654987546
sg274
F1.0
sg275
F1.0
sg276
g10
sg11
F0.10337677194131634
sg277
F0.23285771189734483
sg278
F1.0
sg279
F1.0
sg280
F0.2544312638493591
sg281
g17
sg282
F0.29614308820807633
sg283
F0.0018604086170377898
sg284
F1090.8531555214813
ssa(dp291
I1
(dp292
g3
F0.004576036040826273
sg272
F2.0
sg5
F1.8231276147160578
sg273
F0.42196543684228977
sg274
F1.0
sg275
F1.0
sg276
g10
sg11
F0.3655695287134306
sg277
F0.30412766849595524
sg278
F1.0
sg279
F1.0
sg280
F0.4331409205438866
sg281
g17
sg282
F0.15164518612035854
sg283
F0.061383066370986006
sg284
F956.6122291747249
ssa(dp293
I1
(dp294
g3
F0.0014508471482707116
sg272
F2.0
sg5
F2.212512053505448
sg273
F0.28209366653967366
sg274
F1.0
sg275
F1.0
sg276
g10
sg11
F0.5022091403202006
sg277
F0.22489839109755727
sg278
F1.0
sg279
F1.0
sg280
F0.2243246365280731
sg281
g17
sg282
F0.3986349109527145
sg283
F0.2657959578180702
sg284
F524.4231591770304
ssa(dp295
I1
(dp296
g3
F0.0022187225496410703
sg272
F2.0
sg5
F1.9432509297426313
sg273
F0.647481526617166
sg274
F1.0
sg275
F1.0
sg276
g10
sg11
F0.4151509066366281
sg277
F0.5397139654236889
sg278
F1.0
sg279
F1.0
sg280
F0.2136616182312338
sg281
g17
sg282
F0.5234446836977416
sg283
F0.41394359480767845
sg284
F801.793575079079
ssa(dp297
I1
(dp298
g3
F0.002398347732449099
sg272
F2.0
sg5
F2.1014477251350407
sg273
F0.12929308648923088
sg274
F1.0
sg275
F1.0
sg276
g10
sg11
F0.143487669525662
sg277
F0.18909852122847587
sg278
F1.0
sg279
F1.0
sg280
F0.3411018263163387
sg281
g17
sg282
F0.813186740411519
sg283
F0.3364068781269851
sg284
F611.6330273205137
ssa(dp299
I1
(dp300
g3
F0.0018140474125936338
sg272
F2.0
sg5
F2.109635016262938
sg273
F0.2718863199413661
sg274
F1.0
sg275
F1.0
sg276
g10
sg11
F0.11623083370175369
sg277
F0.3358034487299204
sg278
F1.0
sg279
F1.0
sg280
F0.3533165206707439
sg281
g17
sg282
F0.7007272005944079
sg283
F0.3611696588954476
sg284
F579.6763788545952
ssa(dp301
I1
(dp302
g3
F0.0007267218028522496
sg272
F2.0
sg5
F2.447874408305101
sg273
F0.4915758047078597
sg274
F1.0
sg275
F1.0
sg276
g10
sg11
F0.5086973556262994
sg277
F0.3722793167938747
sg278
F1.0
sg279
F1.0
sg280
F0.1363557351784493
sg281
g17
sg282
F0.35858268267120363
sg283
F0.27697626087148974
sg284
F782.8189327758423
ssa(dp303
I1
(dp304
g3
F0.0017011376916340397
sS'storageGZ'
p305
F2.0
sg5
F2.1614440589501185
sS'k12'
p306
F0.5121308250887447
sS'res2'
p307
F1.0
sS'res1'
p308
F1.0
sS'gz'
p309
g10
sg11
F0.25015180451662367
sS'k1'
p310
F0.25494129609998134
sS'eta'
p311
F1.0
sS'storageVZ'
p312
F1.0
sS'alpha'
p313
F0.2640649957316171
sS'vz'
p314
g17
sS'st'
p315
F0.40630884882347584
sS's0'
p316
F0.26570810195841
sS'zr'
p317
F767.1294506174305
ssa(dp318
I1
(dp319
g3
F0.003513720803455658
sg305
F2.0
sg5
F1.860015778941899
sg306
F0.2480831344368724
sg307
F1.0
sg308
F1.0
sg309
g10
sg11
F0.1401431296246733
sg310
F0.1912581189358834
sg311
F1.0
sg312
F1.0
sg313
F0.256598461930828
sg314
g17
sg315
F0.6834479315671593
sg316
F0.294469728540981
sg317
F692.5370701676621
ssa(dp320
I1
(dp321
g3
F0.0032464662369357084
sg305
F2.0
sg5
F1.9657748681211615
sg306
F0.6607885754351566
sg307
F1.0
sg308
F1.0
sg309
g10
sg11
F0.17457933713251905
sg310
F0.479102357960995
sg311
F1.0
sg312
F1.0
sg313
F0.30704476329116753
sg314
g17
sg315
F0.6264547001278218
sg316
F0.43305741591451485
sg317
F1109.176496897143
ssa(dp322
I1
(dp323
g3
F0.000802651369923397
sg305
F2.0
sg5
F2.360152928861413
sg306
F0.7581880622311621
sg307
F1.0
sg308
F1.0
sg309
g10
sg11
F0.5770114721266412
sg310
F0.42352510743091937
sg311
F1.0
sg312
F1.0
sg313
F0.41802432937526546
sg314
g17
sg315
F0.2236860707763481
sg316
F0.16651619647564575
sg317
F868.6839817204498
ssa(dp324
I1
(dp325
g3
F0.0010364558947707396
sg305
F2.0
sg5
F2.3730140596680576
sg306
F0.198875303491915
sg307
F1.0
sg308
F1.0
sg309
g10
sg11
F0.3591181176384637
sg310
F0.1589663763972723
sg311
F1.0
sg312
F1.0
sg313
F0.3901397704521839
sg314
g17
sg315
F0.5225918838705274
sg316
F0.27099635248849885
sg317
F573.6598634321532
ssa(dp326
I1
(dp327
g3
F0.00182532075375038
sg305
F2.0
sg5
F2.1758966366393477
sg306
F0.33361013353514324
sg307
F1.0
sg308
F1.0
sg309
g10
sg11
F0.1278500267249118
sg310
F0.17459331205588924
sg311
F1.0
sg312
F1.0
sg313
F0.31320349324014907
sg314
g17
sg315
F0.3949128185948414
sg316
F0.22892726862717405
sg317
F1152.2517780665448
ssa(dp328
I1
(dp329
g3
F0.0030844667649513498
sg305
F2.0
sg5
F1.9812946727358511
sg306
F0.5829210431614275
sg307
F1.0
sg308
F1.0
sg309
g10
sg11
F0.3141147896486828
sg310
F0.23104693680802857
sg311
F1.0
sg312
F1.0
sg313
F0.30640459828482636
sg314
g17
sg315
F0.18941293830328182
sg316
F0.08810901256181114
sg317
F1056.0953987744597
ssa(dp330
I1
(dp331
g3
F0.0013695202482680194
sg305
F2.0
sg5
F2.302565825784145
sg306
F0.3775691954385076
sg307
F1.0
sg308
F1.0
sg309
g10
sg11
F0.15295134766789664
sg310
F0.21712155305053393
sg311
F1.0
sg312
F1.0
sg313
F0.5179088983070851
sg314
g17
sg315
F0.48671030833265116
sg316
F0.09314242729296374
sg317
F619.8009297045152
ssa(dp332
I1
(dp333
g3
F0.0012937336203104862
sg305
F2.0
sg5
F2.4867257156989773
sg306
F0.5888980332641418
sg307
F1.0
sg308
F1.0
sg309
g10
sg11
F0.19703843760175482
sg310
F0.19244542325572284
sg311
F1.0
sg312
F1.0
sg313
F0.61288431755052
sg314
g17
sg315
F0.6725659895827916
sg316
F0.33418972320847434
sg317
F547.1002774446517
ssa(dp334
I1
(dp335
g3
F0.0046272760833541895
sg305
F2.0
sg5
F1.8436667373590954
sg306
F0.5565703481011964
sg307
F1.0
sg308
F1.0
sg309
g10
sg11
F0.09381261211892741
sg310
F0.18956427711518148
sg311
F1.0
sg312
F1.0
sg313
F0.37969562313516103
sg314
g17
sg315
F0.32880440885647966
sg316
F0.05359080579769093
sg317
F1055.514181780008
ssa(dp336
I1
(dp337
g3
F0.001118069247905955
sS'storageGZ'
p338
F2.0
sg5
F2.426386348025078
sS'k12'
p339
F0.6038272678461412
sS'res2'
p340
F1.0
sS'res1'
p341
F1.0
sS'gz'
p342
g10
sg11
F0.41211532321039157
sS'k1'
p343
F0.31621210832517166
sS'eta'
p344
F1.0
sS'storageVZ'
p345
F1.0
sS'alpha'
p346
F0.29541023280975387
sS'vz'
p347
g17
sS'st'
p348
F0.3778124236390644
sS's0'
p349
F0.25835810292334227
sS'zr'
p350
F553.1135049748108
ssa(dp351
I1
(dp352
g3
F0.0011960989211953375
sg338
F2.0
sg5
F2.3108264037087745
sg339
F0.3846043582263271
sg340
F1.0
sg341
F1.0
sg342
g10
sg11
F0.1650999517825194
sg343
F0.30257130398901005
sg344
F1.0
sg345
F1.0
sg346
F0.15179593330394275
sg347
g17
sg348
F0.25724223453734973
sg349
F0.01895978313332808
sg350
F627.8884805306244
ssa(dp353
I1
(dp354
g3
F0.0007181052143870783
sg338
F2.0
sg5
F2.465765999707046
sg339
F0.5940678205424337
sg340
F1.0
sg341
F1.0
sg342
g10
sg11
F0.4673952021291854
sg343
F0.32810359439457604
sg344
F1.0
sg345
F1.0
sg346
F0.5493285715203688
sg347
g17
sg348
F0.29384868091541383
sg349
F0.229417083039876
sg350
F1191.994860923014
ssa(dp355
I1
(dp356
g3
F0.0009716064530835445
sg338
F2.0
sg5
F2.456100800106192
sg339
F0.5733100680632728
sg340
F1.0
sg341
F1.0
sg342
g10
sg11
F0.10330125686859484
sg343
F0.2298046830235661
sg344
F1.0
sg345
F1.0
sg346
F0.4556195967709011
sg347
g17
sg348
F0.2342365427526027
sg349
F0.012853740484022769
sg350
F1139.99130062509
ssa(dp357
I1
(dp358
g3
F0.002382478174016653
sg338
F2.0
sg5
F2.1603567105819224
sg339
F0.5005225749657106
sg340
F1.0
sg341
F1.0
sg342
g10
sg11
F0.11547922716555604
sg343
F0.2761259763635119
sg344
F1.0
sg345
F1.0
sg346
F0.4893694263900428
sg347
g17
sg348
F0.7088824193718295
sg349
F0.2313515207869467
sg350
F720.7883452189888
ssa(dp359
I1
(dp360
g3
F0.002931003113474901
sg338
F2.0
sg5
F1.8806557321383446
sg339
F0.17745179218370516
sg340
F1.0
sg341
F1.0
sg342
g10
sg11
F0.10538139347152778
sg343
F0.28748872557432653
sg344
F1.0
sg345
F1.0
sg346
F0.2763464964210382
sg347
g17
sg348
F0.7066931235697445
sg349
F0.1378082610288105
sg350
F617.7891901011403
ssa(dp361
I1
(dp362
g3
F0.0016205519171379294
sg338
F2.0
sg5
F2.1989520850966375
sg339
F0.72334114862391
sg340
F1.0
sg341
F1.0
sg342
g10
sg11
F0.3971999644185399
sg343
F0.1629605971655715
sg344
F1.0
sg345
F1.0
sg346
F0.5594967856109866
sg347
g17
sg348
F0.5261433830852054
sg349
F0.4453563673653406
sg350
F677.2601018712555
ssa(dp363
I1
(dp364
g3
F0.0005854503269764162
sg338
F2.0
sg5
F2.3830977906699644
sg339
F0.5718645220027462
sg340
F1.0
sg341
F1.0
sg342
g10
sg11
F0.13044195460667354
sg343
F0.4409602829131136
sg344
F1.0
sg345
F1.0
sg346
F0.23685907131691497
sg347
g17
sg348
F0.39589400820093046
sg349
F0.05057811880078383
sg350
F577.135146554234
ssa(dp365
I1
(dp366
g3
F0.0007903990104410773
sg338
F2.0
sg5
F2.3444053417554125
sg339
F0.7647579144187574
sg340
F1.0
sg341
F1.0
sg342
g10
sg11
F0.5019108929818585
sg343
F0.5724596362399501
sg344
F1.0
sg345
F1.0
sg346
F0.25266049640172195
sg347
g17
sg348
F0.43764317852062606
sg349
F0.3523065777486644
sg350
F716.9837555645668
ssa(dp367
I1
(dp368
g3
F0.0014637266268994861
sg338
F2.0
sg5
F2.131461705119858
sg339
F0.5448683413061448
sg340
F1.0
sg341
F1.0
sg342
g10
sg11
F0.32318873103870793
sg343
F0.23729483413176777
sg344
F1.0
sg345
F1.0
sg346
F0.33863784122807916
sg347
g17
sg348
F0.49917875336428974
sg349
F0.3687108970108856
sg350
F588.3854369634536
ssa(dp369
I1
(dp370
g3
F0.0027298425292283735
sS'storageGZ'
p371
F2.0
sg5
F1.9686545894690592
sS'k12'
p372
F0.6231712932072602
sS'res2'
p373
F1.0
sS'res1'
p374
F1.0
sS'gz'
p375
g10
sg11
F0.10488500778008389
sS'k1'
p376
F0.4542730229436562
sS'eta'
p377
F1.0
sS'storageVZ'
p378
F1.0
sS'alpha'
p379
F0.4173893822665674
sS'vz'
p380
g17
sS'st'
p381
F0.7858603690368534
sS's0'
p382
F0.12247490972810504
sS'zr'
p383
F595.1743009193901
ssa(dp384
I1
(dp385
g3
F0.001553143131173252
sg371
F2.0
sg5
F2.020201592701629
sg372
F0.09067796114964884
sg373
F1.0
sg374
F1.0
sg375
g10
sg11
F0.12493893749247567
sg376
F0.16469200429197783
sg377
F1.0
sg378
F1.0
sg379
F0.18264845810584396
sg380
g17
sg381
F0.641746004394894
sg382
F0.17124568794177064
sg383
F534.3934120617607
ssa(dp386
I1
(dp387
g3
F0.0016911291069942281
sg371
F2.0
sg5
F2.402850247999274
sg372
F0.6335255112682054
sg373
F1.0
sg374
F1.0
sg375
g10
sg11
F0.31598264012636335
sg376
F0.2711938740159014
sg377
F1.0
sg378
F1.0
sg379
F0.2650854294157503
sg380
g17
sg381
F0.25329749026506776
sg382
F0.13530863311858898
sg383
F666.2459541082068
ssa(dp388
I1
(dp389
g3
F0.0022038059349144385
sg371
F2.0
sg5
F2.1075364648683506
sg372
F0.7736318075804177
sg373
F1.0
sg374
F1.0
sg375
g10
sg11
F0.3952955149487138
sg376
F0.17053813255866174
sg377
F1.0
sg378
F1.0
sg379
F0.5069558134547364
sg380
g17
sg381
F0.2826524512859974
sg382
F0.16206231922468262
sg383
F897.498292454993
ssa(dp390
I1
(dp391
g3
F0.001674507579260417
sg371
F2.0
sg5
F2.2246831315180473
sg372
F0.590080940633054
sg373
F1.0
sg374
F1.0
sg375
g10
sg11
F0.08567301468588895
sg376
F0.25968218295581325
sg377
F1.0
sg378
F1.0
sg379
F0.3804926825101639
sg380
g17
sg381
F0.8981289938121325
sg382
F0.2726885249659353
sg383
F536.8248621370916
ssa(dp392
I1
(dp393
g3
F0.0010293982610120544
sg371
F2.0
sg5
F2.2825377752382208
sg372
F0.6126740570321698
sg373
F1.0
sg374
F1.0
sg375
g10
sg11
F0.5106197198789258
sg376
F0.32876545702484594
sg377
F1.0
sg378
F1.0
sg379
F0.22481549544321433
sg380
g17
sg381
F0.13925402750825666
sg382
F0.055217923205033215
sg383
F501.35404482705525
ssa(dp394
I1
(dp395
g3
F0.001941020285606892
sg371
F2.0
sg5
F2.1846412691192825
sg372
F0.7249125512912795
sg373
F1.0
sg374
F1.0
sg375
g10
sg11
F0.12127637215587792
sg376
F0.21754578343352926
sg377
F1.0
sg378
F1.0
sg379
F0.5633862502303292
sg380
g17
sg381
F0.3305193937472712
sg382
F0.010760379895312089
sg383
F568.7774344420405
ssa(dp396
I1
(dp397
g3
F0.006752053475711544
sg371
F2.0
sg5
F1.8942581795163302
sg372
F0.7969379442680542
sg373
F1.0
sg374
F1.0
sg375
g10
sg11
F0.30449593093549365
sg376
F0.16435286664631135
sg377
F1.0
sg378
F1.0
sg379
F0.5610034515523414
sg380
g17
sg381
F0.7475448183640159
sg382
F0.47117228389420673
sg383
F646.5473690690317
ssa(dp398
I1
(dp399
g3
F0.005295583933687342
sg371
F2.0
sg5
F1.9688135003662646
sg372
F0.7645001556162713
sg373
F1.0
sg374
F1.0
sg375
g10
sg11
F0.16678082294184926
sg376
F0.16142960316864857
sg377
F1.0
sg378
F1.0
sg379
F0.5418940430714618
sg380
g17
sg381
F0.608646184638208
sg382
F0.2974887117184111
sg383
F768.1316151816586
ssa(dp400
I1
(dp401
g3
F0.004018255210566736
sg371
F2.0
sg5
F1.9146661170483046
sg372
F0.6868731224493538
sg373
F1.0
sg374
F1.0
sg375
g10
sg11
F0.07176082175948181
sg376
F0.48075537015600345
sg377
F1.0
sg378
F1.0
sg379
F0.906776500659116
sg380
g17
sg381
F0.5473614916314128
sg382
F0.0384258131377766
sg383
F966.6509889362038
ssa(dp402
I1
(dp403
g3
F0.002452752035529128
sS'storageGZ'
p404
F2.0
sg5
F2.0620411803756156
sS'k12'
p405
F0.5294842703963225
sS'res2'
p406
F1.0
sS'res1'
p407
F1.0
sS'gz'
p408
g10
sg11
F0.3047076866555155
sS'k1'
p409
F0.23815596360955893
sS'eta'
p410
F1.0
sS'storageVZ'
p411
F1.0
sS'alpha'
p412
F0.3704201621432799
sS'vz'
p413
g17
sS'st'
p414
F0.630745593273466
sS's0'
p415
F0.4752020599675943
sS'zr'
p416
F524.5775481996482
ssa(dp417
I1
(dp418
g3
F0.00221054101814223
sg404
F2.0
sg5
F1.9752317397553563
sg405
F0.3857991881336082
sg406
F1.0
sg407
F1.0
sg408
g10
sg11
F0.2290231782217546
sg409
F0.3642885133178252
sg410
F1.0
sg411
F1.0
sg412
F0.20557495492256622
sg413
g17
sg414
F0.556411490111362
sg415
F0.4241623448453927
sg416
F992.6983369271941
ssa(dp419
I1
(dp420
g3
F0.0032393068158029026
sg404
F2.0
sg5
F2.046200713190828
sg405
F0.6398706156619899
sg406
F1.0
sg407
F1.0
sg408
g10
sg11
F0.060930899380239975
sg409
F0.381365260398642
sg410
F1.0
sg411
F1.0
sg412
F0.45237000903879276
sg413
g17
sg414
F0.7820525895581557
sg415
F0.1871497649151721
sg416
F934.8209496361965
ssa(dp421
I1
(dp422
g3
F0.0007685157187570615
sg404
F2.0
sg5
F2.452075093845433
sg405
F0.4840449087774638
sg406
F1.0
sg407
F1.0
sg408
g10
sg11
F0.07894919986563882
sg409
F0.5052796859197024
sg410
F1.0
sg411
F1.0
sg412
F0.28528582082240966
sg413
g17
sg414
F0.45230279739831536
sg415
F0.17092870108007668
sg416
F1143.0259092826814
ssa(dp423
I1
(dp424
g3
F0.0013598584220354901
sg404
F2.0
sg5
F2.1811804890286326
sg405
F0.2261091437694796
sg406
F1.0
sg407
F1.0
sg408
g10
sg11
F0.05595955431741512
sg409
F0.22591944013643916
sg410
F1.0
sg411
F1.0
sg412
F0.369319219632296
sg413
g17
sg414
F0.875445680253916
sg415
F0.08393446777720875
sg416
F763.7338881601227
ssa(dp425
I1
(dp426
g3
F0.002067315894487491
sg404
F2.0
sg5
F2.0960870029096146
sg405
F0.25002268641727154
sg406
F1.0
sg407
F1.0
sg408
g10
sg11
F0.44389782107700715
sg409
F0.29762702393956436
sg410
F1.0
sg411
F1.0
sg412
F0.1763821240983634
sg413
g17
sg414
F0.41402870427711613
sg415
F0.33221762402946114
sg416
F598.5660550063949
ssa(dp427
I1
(dp428
g3
F0.00456747643129499
sg404
F2.0
sg5
F1.8751177223840396
sg405
F0.19615794213394716
sg406
F1.0
sg407
F1.0
sg408
g10
sg11
F0.33377023792122723
sg409
F0.23226486722164674
sg410
F1.0
sg411
F1.0
sg412
F0.48145478379085455
sg413
g17
sg414
F0.24529034526224108
sg415
F0.08133773041099013
sg416
F658.017491749425
ssa(dp429
I1
(dp430
g3
F0.001254660394267919
sg404
F2.0
sg5
F2.2391046710948936
sg405
F0.32058498591187407
sg406
F1.0
sg407
F1.0
sg408
g10
sg11
F0.09261334836629209
sg409
F0.44770009487520107
sg410
F1.0
sg411
F1.0
sg412
F0.25245425478014005
sg413
g17
sg414
F0.648901786240087
sg415
F0.33119031739160615
sg416
F1146.8740599095217
ssa(dp431
I1
(dp432
g3
F0.0015407598377111353
sg404
F2.0
sg5
F2.1813739684683218
sg405
F0.368346381818979
sg406
F1.0
sg407
F1.0
sg408
g10
sg11
F0.23350470707191917
sg409
F0.33924470937864304
sg410
F1.0
sg411
F1.0
sg412
F0.39152696293624417
sg413
g17
sg414
F0.22031439628478444
sg415
F0.004543990964024747
sg416
F921.5255168729141
ssa(dp433
I1
(dp434
g3
F0.0028180842345207954
sg404
F2.0
sg5
F1.844902777631086
sg405
F0.22538892294617563
sg406
F1.0
sg407
F1.0
sg408
g10
sg11
F0.48711165575629933
sg409
F0.20662947826775657
sg410
F1.0
sg411
F1.0
sg412
F0.37643543317642314
sg413
g17
sg414
F0.4162832015291108
sg415
F0.3332240371684793
sg416
F745.1984277064305
ssa(dp435
I1
(dp436
g3
F0.005215302584544241
sS'storageGZ'
p437
F2.0
sg5
F1.8394393871316086
sS'k12'
p438
F0.520293905148307
sS'res2'
p439
F1.0
sS'res1'
p440
F1.0
sS'gz'
p441
g10
sg11
F0.132128342728684
sS'k1'
p442
F0.3330267431965252
sS'eta'
p443
F1.0
sS'storageVZ'
p444
F1.0
sS'alpha'
p445
F0.5184247908803864
sS'vz'
p446
g17
sS'st'
p447
F0.1728849520190867
sS's0'
p448
F0.002987394368381524
sS'zr'
p449
F1118.3116949094012
ssa(dp450
I1
(dp451
g3
F0.003512737853612639
sg437
F2.0
sg5
F1.8843586204516016
sg438
F0.5825585143859022
sg439
F1.0
sg440
F1.0
sg441
g10
sg11
F0.3755620735526686
sg442
F0.2998766652583732
sg443
F1.0
sg444
F1.0
sg445
F0.4681332875385386
sg446
g17
sg447
F0.257955238421673
sg448
F0.17113022086145013
sg449
F790.9480643143954
ssa(dp452
I1
(dp453
g3
F0.0041945910292538816
sg437
F2.0
sg5
F1.912789126150577
sg438
F0.4635470301615752
sg439
F1.0
sg440
F1.0
sg441
g10
sg11
F0.1743006618202197
sg442
F0.2140433335120584
sg443
F1.0
sg444
F1.0
sg445
F0.45701851247465053
sg446
g17
sg447
F0.4050144819108735
sg448
F0.20750803675395468
sg449
F1088.846951042795
ssa(dp454
I1
(dp455
g3
F0.001965351343358047
sg437
F2.0
sg5
F2.1741297182108728
sg438
F0.46795627790595246
sg439
F1.0
sg440
F1.0
sg441
g10
sg11
F0.057248033340041
sg442
F0.3474582973636439
sg443
F1.0
sg444
F1.0
sg445
F0.37023005303393824
sg446
g17
sg447
F0.8620485348373792
sg448
F0.2580256873832051
sg449
F1057.8245731243742
ssa(dp456
I1
(dp457
g3
F0.0036646741653339355
sg437
F2.0
sg5
F1.944054310359429
sg438
F0.532475928218456
sg439
F1.0
sg440
F1.0
sg441
g10
sg11
F0.5316505478937836
sg442
F0.43263935406289183
sg443
F1.0
sg444
F1.0
sg445
F0.45948127547519063
sg446
g17
sg447
F0.3663441265677184
sg448
F0.24794571646384672
sg449
F799.2935086546752
ssa(dp458
I1
(dp459
g3
F0.0014201822777537895
sg437
F2.0
sg5
F2.1332680266176167
sg438
F0.5893797992632221
sg439
F1.0
sg440
F1.0
sg441
g10
sg11
F0.530431204981689
sg442
F0.3861672795749109
sg443
F1.0
sg444
F1.0
sg445
F0.19151004027908958
sg446
g17
sg447
F0.4742350708580174
sg448
F0.3811670282606391
sg449
F590.9448503723818
ssa(dp460
I1
(dp461
g3
F0.0027157407445534496
sg437
F2.0
sg5
F2.0300822263089366
sg438
F0.7371848986801975
sg439
F1.0
sg440
F1.0
sg441
g10
sg11
F0.5094138330023876
sg442
F0.2517652844823219
sg443
F1.0
sg444
F1.0
sg445
F0.43767185692362215
sg446
g17
sg447
F0.21350051377282125
sg448
F0.13796291033278485
sg449
F950.173358224529
ssa(dp462
I1
(dp463
g3
F0.003177500265801677
sg437
F2.0
sg5
F2.023407790413703
sg438
F0.18919973475189517
sg439
F1.0
sg440
F1.0
sg441
g10
sg11
F0.3182249463661518
sg442
F0.2704692125670411
sg443
F1.0
sg444
F1.0
sg445
F0.39195860652140746
sg446
g17
sg447
F0.23317180225876355
sg448
F0.024002440298112215
sg449
F687.5268507606529
ssa(dp464
I1
(dp465
g3
F0.006267859593035614
sg437
F2.0
sg5
F1.832162223335728
sg438
F0.5766348324622029
sg439
F1.0
sg440
F1.0
sg441
g10
sg11
F0.24521811008416555
sg442
F0.17960675163863066
sg443
F1.0
sg444
F1.0
sg445
F0.5369203713852119
sg446
g17
sg447
F0.4760332593415122
sg448
F0.14277858682711903
sg449
F694.2048137027019
ssa(dp466
I1
(dp467
g3
F0.003410412263273262
sg437
F2.0
sg5
F1.981972268892035
sg438
F0.7735528807856392
sg439
F1.0
sg440
F1.0
sg441
g10
sg11
F0.08770146330177311
sg442
F0.30479439468406144
sg443
F1.0
sg444
F1.0
sg445
F0.615309153455314
sg446
g17
sg447
F0.5936188929683701
sg448
F0.1791271457409016
sg449
F951.6037652325456
ssa(dp468
I1
(dp469
g3
F0.000968714967971987
sS'storageGZ'
p470
F2.0
sg5
F2.462181375409179
sS'k12'
p471
F0.7704125404613653
sS'res2'
p472
F1.0
sS'res1'
p473
F1.0
sS'gz'
p474
g10
sg11
F0.18284599254658807
sS'k1'
p475
F0.1707985408429354
sS'eta'
p476
F1.0
sS'storageVZ'
p477
F1.0
sS'alpha'
p478
F0.40768766632491943
sS'vz'
p479
g17
sS'st'
p480
F0.7050403442188242
sS's0'
p481
F0.46140713433807096
sS'zr'
p482
F989.5097650036198
ssa(dp483
I1
(dp484
g3
F0.0009655728483646683
sg470
F2.0
sg5
F2.4274057891509804
sg471
F0.6483736067308782
sg472
F1.0
sg473
F1.0
sg474
g10
sg11
F0.08724767516440354
sg475
F0.3613038632139208
sg476
F1.0
sg477
F1.0
sg478
F0.22475941988301934
sg479
g17
sg480
F0.8946425967724578
sg481
F0.43677956705071364
sg482
F540.3393888349804
ssa(dp485
I1
(dp486
g3
F0.0018411720075327698
sg470
F2.0
sg5
F2.2723226761737263
sg471
F0.5514525978339441
sg472
F1.0
sg473
F1.0
sg474
g10
sg11
F0.05462658335809517
sg475
F0.27857230097092767
sg476
F1.0
sg477
F1.0
sg478
F0.40856780785878827
sg479
g17
sg480
F0.646135993637009
sg481
F0.20742085011811218
sg482
F1171.0540747174055
ssa(dp487
I1
(dp488
g3
F0.0009735498500579329
sg470
F2.0
sg5
F2.424494775598396
sg471
F0.5596079577508569
sg472
F1.0
sg473
F1.0
sg474
g10
sg11
F0.4301959662109606
sg475
F0.17692053153727777
sg476
F1.0
sg477
F1.0
sg478
F0.49631790277827603
sg479
g17
sg480
F0.5292501593634779
sg481
F0.4438028845420422
sg482
F840.4455666989029
ssa(dp489
I1
(dp490
g3
F0.002362223842486611
sg470
F2.0
sg5
F2.0220694408825914
sg471
F0.3064508755441374
sg472
F1.0
sg473
F1.0
sg474
g10
sg11
F0.13096684761532973
sg475
F0.23809416065997796
sg476
F1.0
sg477
F1.0
sg478
F0.2248609836066094
sg479
g17
sg480
F0.6639621075794906
sg481
F0.26406853571436806
sg482
F719.6667707132334
ssa(dp491
I1
(dp492
g3
F0.002782002369816376
sg470
F2.0
sg5
F1.955819387038061
sg471
F0.656444359408126
sg472
F1.0
sg473
F1.0
sg474
g10
sg11
F0.06898404450970072
sg475
F0.41176342157055057
sg476
F1.0
sg477
F1.0
sg478
F0.21994754050041476
sg479
g17
sg480
F0.42100958201181204
sg481
F0.11807970272095003
sg482
F1063.669476555899
ssa(dp493
I1
(dp494
g3
F0.002450553460557683
sg470
F2.0
sg5
F2.2434784066449076
sg471
F0.74961519690627
sg472
F1.0
sg473
F1.0
sg474
g10
sg11
F0.16284235179432457
sg475
F0.09102211170625171
sg476
F1.0
sg477
F1.0
sg478
F0.58661678198489
sg479
g17
sg480
F0.434159395754096
sg481
F0.07731875788887815
sg482
F731.9401385544229
ssa(dp495
I1
(dp496
g3
F0.0029560459851229216
sg470
F2.0
sg5
F1.9125974204648923
sg471
F0.3380792742975801
sg472
F1.0
sg473
F1.0
sg474
g10
sg11
F0.05609356529205234
sg475
F0.19591285573519324
sg476
F1.0
sg477
F1.0
sg478
F0.2175624686898971
sg479
g17
sg480
F0.8964399766270579
sg481
F0.28913802419286755
sg482
F1041.4893781349701
ssa(dp497
I1
(dp498
g3
F0.0019362931753214012
sg470
F2.0
sg5
F2.2443704149727672
sg471
F0.7969275775871061
sg472
F1.0
sg473
F1.0
sg474
g10
sg11
F0.3048875581423944
sg475
F0.2871406329345895
sg476
F1.0
sg477
F1.0
sg478
F0.31867141377530533
sg479
g17
sg480
F0.31850177188616857
sg481
F0.17274239375403166
sg482
F617.6112503570166
ssa(dp499
I1
(dp500
g3
F0.003248595993723067
sg470
F2.0
sg5
F1.985767341343847
sg471
F0.22821758283319138
sg472
F1.0
sg473
F1.0
sg474
g10
sg11
F0.2750974288414225
sg475
F0.22433744209422152
sg476
F1.0
sg477
F1.0
sg478
F0.5502275832798111
sg479
g17
sg480
F0.4931326373720549
sg481
F0.3713574913596003
sg482
F1059.1918457516163
ssa(dp501
I1
(dp502
g3
F0.002831070742247084
sS'storageGZ'
p503
F2.0
sg5
F1.9320780730841816
sS'k12'
p504
F0.6235808630611421
sS'res2'
p505
F1.0
sS'res1'
p506
F1.0
sS'gz'
p507
g10
sg11
F0.133003307789496
sS'k1'
p508
F0.3866994080296769
sS'eta'
p509
F1.0
sS'storageVZ'
p510
F1.0
sS'alpha'
p511
F0.2576867003078139
sS'vz'
p512
g17
sS'st'
p513
F0.4088306134008084
sS's0'
p514
F0.22102404188122954
sS'zr'
p515
F1096.428584103245
ssa(dp516
I1
(dp517
g3
F0.0019156405299569632
sg503
F2.0
sg5
F2.131862638465237
sg504
F0.4717762080881556
sg505
F1.0
sg506
F1.0
sg507
g10
sg11
F0.19202399918921087
sg508
F0.1966711411337
sg509
F1.0
sg510
F1.0
sg511
F0.29903730129374523
sg512
g17
sg513
F0.37479754716688884
sg514
F0.16181904900186295
sg515
F709.8019806338118
ssa(dp518
I1
(dp519
g3
F0.0009695520548527759
sg503
F2.0
sg5
F2.371663195659959
sg504
F0.40151539903060324
sg505
F1.0
sg506
F1.0
sg507
g10
sg11
F0.08508160749390836
sg508
F0.30999334008565377
sg509
F1.0
sg510
F1.0
sg511
F0.2981026882472858
sg512
g17
sg513
F0.7392223262401931
sg514
F0.2562076188737976
sg515
F967.6177083594508
ssa(dp520
I1
(dp521
g3
F0.0006119252632390595
sg503
F2.0
sg5
F2.49975117189532
sg504
F0.626204793481158
sg505
F1.0
sg506
F1.0
sg507
g10
sg11
F0.1639846608117443
sg508
F0.3288988586828989
sg509
F1.0
sg510
F1.0
sg511
F0.3131744089757777
sg512
g17
sg513
F0.4694173218898492
sg514
F0.32410144031909116
sg515
F1155.7692650282102
ssa(dp522
I1
(dp523
g3
F0.001008872023555866
sg503
F2.0
sg5
F2.4395281061467786
sg504
F0.3757522681969205
sg505
F1.0
sg506
F1.0
sg507
g10
sg11
F0.05437972831278883
sg508
F0.2352937517117083
sg509
F1.0
sg510
F1.0
sg511
F0.2208450373489077
sg512
g17
sg513
F0.8522130386627621
sg514
F0.45148186997063433
sg515
F1023.7660060007028
ssa(dp524
I1
(dp525
g3
F0.002301023508701529
sg503
F2.0
sg5
F2.0935745064022084
sg504
F0.758807312968778
sg505
F1.0
sg506
F1.0
sg507
g10
sg11
F0.14768249879893985
sg508
F0.24563940238350013
sg509
F1.0
sg510
F1.0
sg511
F0.526956287618146
sg512
g17
sg513
F0.47378438791981803
sg514
F0.2888352990630334
sg515
F1159.243520395812
ssa(dp526
I1
(dp527
g3
F0.001690251471201667
sg503
F2.0
sg5
F2.2313440269039773
sg504
F0.46223464577751877
sg505
F1.0
sg506
F1.0
sg507
g10
sg11
F0.2798012771182739
sg508
F0.42246844707040765
sg509
F1.0
sg510
F1.0
sg511
F0.4190796998044493
sg512
g17
sg513
F0.29103313696488897
sg514
F0.12184088494768924
sg515
F604.7924590965644
ssa(dp528
I1
(dp529
g3
F0.002149297475369707
sg503
F2.0
sg5
F2.1326271800334724
sg504
F0.5989070757821366
sg505
F1.0
sg506
F1.0
sg507
g10
sg11
F0.3547428650136627
sg508
F0.3783272464786837
sg509
F1.0
sg510
F1.0
sg511
F0.3919455599725675
sg512
g17
sg513
F0.33522447713333325
sg514
F0.1293502508044866
sg515
F516.3783069617003
ssa(dp530
I1
(dp531
g3
F0.0014914958160081422
sg503
F2.0
sg5
F2.205175847148061
sg504
F0.6000928489541477
sg505
F1.0
sg506
F1.0
sg507
g10
sg11
F0.08858764195477689
sg508
F0.42071907154269766
sg509
F1.0
sg510
F1.0
sg511
F0.4126837647315238
sg512
g17
sg513
F0.43221747515626796
sg514
F0.062363268618850776
sg515
F1018.8878494396151
ssa(dp532
I1
(dp533
g3
F0.0010104839224145306
sg503
F2.0
sg5
F2.313218487173649
sg504
F0.4653770836556678
sg505
F1.0
sg506
F1.0
sg507
g10
sg11
F0.057502517397215076
sg508
F0.3777225509502749
sg509
F1.0
sg510
F1.0
sg511
F0.19941893172275588
sg512
g17
sg513
F0.9280800409337525
sg514
F0.19774108195855694
sg515
F629.0417889073622
ssa(dp534
I1
(dp535
g3
F0.004163913402258011
sS'storageGZ'
p536
F2.0
sg5
F1.8022706244031643
sS'k12'
p537
F0.30707752468747224
sS'res2'
p538
F1.0
sS'res1'
p539
F1.0
sS'gz'
p540
g10
sg11
F0.5376073349051429
sS'k1'
p541
F0.368766357455957
sS'eta'
p542
F1.0
sS'storageVZ'
p543
F1.0
sS'alpha'
p544
F0.15050079729386245
sS'vz'
p545
g17
sS'st'
p546
F0.1512541904804025
sS's0'
p547
F0.050770288650026696
sS'zr'
p548
F592.9647090091345
ssa(dp549
I1
(dp550
g3
F0.004345803210216539
sg536
F2.0
sg5
F1.8499355135823554
sg537
F0.7332364070225064
sg538
F1.0
sg539
F1.0
sg540
g10
sg11
F0.07435814815459245
sg541
F0.22508702891794036
sg542
F1.0
sg543
F1.0
sg544
F0.2894334453189322
sg545
g17
sg546
F0.4174347872214377
sg547
F0.11963985861072973
sg548
F1152.1081496813322
ssa(dp551
I1
(dp552
g3
F0.0009480991716172483
sg536
F2.0
sg5
F2.358542647334055
sg537
F0.7168422759822853
sg538
F1.0
sg539
F1.0
sg540
g10
sg11
F0.10276985930823623
sg541
F0.28660165023869183
sg542
F1.0
sg543
F1.0
sg544
F0.29044335482893285
sg545
g17
sg546
F0.5595597219931467
sg547
F0.28833016162824415
sg548
F788.3787308514636
ssa(dp553
I1
(dp554
g3
F0.002222121979461564
sg536
F2.0
sg5
F2.0130525193734137
sg537
F0.20356065332907547
sg538
F1.0
sg539
F1.0
sg540
g10
sg11
F0.22976695955025866
sg541
F0.32500948937946916
sg542
F1.0
sg543
F1.0
sg544
F0.22262281490994962
sg545
g17
sg546
F0.16030569629630181
sg547
F0.03254898285221963
sg548
F818.173449866136
ssa(dp555
I1
(dp556
g3
F0.0021012794084026903
sg536
F2.0
sg5
F2.217978303206523
sg537
F0.5229867582460307
sg538
F1.0
sg539
F1.0
sg540
g10
sg11
F0.1581228458348822
sg541
F0.15950574004568394
sg542
F1.0
sg543
F1.0
sg544
F0.5747040230142222
sg545
g17
sg546
F0.3222900421836101
sg547
F0.11708682828479466
sg548
F805.9264974267958
ssa(dp557
I1
(dp558
g3
F0.004062451660966264
sg536
F2.0
sg5
F1.927101983600667
sg537
F0.7781749945940419
sg538
F1.0
sg539
F1.0
sg540
g10
sg11
F0.10328063713824417
sg541
F0.453945353975302
sg542
F1.0
sg543
F1.0
sg544
F0.4069059308293408
sg545
g17
sg546
F0.7537536253043126
sg547
F0.2455213280895862
sg548
F768.2636268851481
ssa(dp559
I1
(dp560
g3
F0.0021435683293347897
sg536
F2.0
sg5
F2.2457079223680756
sg537
F0.5852566449677538
sg538
F1.0
sg539
F1.0
sg540
g10
sg11
F0.22839944501066578
sg541
F0.266737767295895
sg542
F1.0
sg543
F1.0
sg544
F0.6696439376316733
sg545
g17
sg546
F0.8560646426555272
sg547
F0.45145941128999184
sg548
F550.903320508478
ssa(dp561
I1
(dp562
g3
F0.0025572621368187025
sg536
F2.0
sg5
F2.143746839730433
sg537
F0.47271301000922644
sg538
F1.0
sg539
F1.0
sg540
g10
sg11
F0.40754610985952366
sg541
F0.3214270360852535
sg542
F1.0
sg543
F1.0
sg544
F0.3699784923905814
sg545
g17
sg546
F0.2816215797028945
sg547
F0.19723378325787194
sg548
F798.4675708570301
ssa(dp563
I1
(dp564
g3
F0.001350513891508791
sg536
F2.0
sg5
F2.3650765200795947
sg537
F0.428143514502954
sg538
F1.0
sg539
F1.0
sg540
g10
sg11
F0.20569678265022678
sg541
F0.18256109810422083
sg542
F1.0
sg543
F1.0
sg544
F0.49247488826171376
sg545
g17
sg546
F0.7673886080217256
sg547
F0.4412770781888923
sg548
F611.1366442923999
ssa(dp565
I1
(dp566
g3
F0.0013846744712485064
sg536
F2.0
sg5
F2.333492832494729
sg537
F0.26453966780629906
sg538
F1.0
sg539
F1.0
sg540
g10
sg11
F0.15400270737120147
sg541
F0.14310649547570697
sg542
F1.0
sg543
F1.0
sg544
F0.40075127339790595
sg545
g17
sg546
F0.34913642210682566
sg547
F0.15768794745700637
sg548
F748.6179936883864
ssa(dp567
I1
(dp568
g3
F0.0015364827088285961
sS'storageGZ'
p569
F2.0
sg5
F2.095382440845202
sS'k12'
p570
F0.18450201228964525
sS'res2'
p571
F1.0
sS'res1'
p572
F1.0
sS'gz'
p573
g10
sg11
F0.10977317479785288
sS'k1'
p574
F0.23366282907365094
sS'eta'
p575
F1.0
sS'storageVZ'
p576
F1.0
sS'alpha'
p577
F0.1621363842157807
sS'vz'
p578
g17
sS'st'
p579
F0.6639427769638964
sS's0'
p580
F0.2503643139996099
sS'zr'
p581
F533.6046811970159
ssa(dp582
I1
(dp583
g3
F0.004488651888487582
sg569
F2.0
sg5
F1.8568821630156807
sg570
F0.6194967408867101
sg571
F1.0
sg572
F1.0
sg573
g10
sg11
F0.22786537465779677
sg574
F0.3684565193423545
sg575
F1.0
sg576
F1.0
sg577
F0.4563402808760671
sg578
g17
sg579
F0.43882059899205983
sg580
F0.05708836637007153
sg581
F545.4849452263903
ssa(dp584
I1
(dp585
g3
F0.001511478133010764
sg569
F2.0
sg5
F2.0415467519796606
sg570
F0.5885164517704811
sg571
F1.0
sg572
F1.0
sg573
g10
sg11
F0.12705035106320056
sg574
F0.3417432909079365
sg575
F1.0
sg576
F1.0
sg577
F0.2303038106061039
sg578
g17
sg579
F0.7503784924754122
sg580
F0.4088976946250265
sg581
F607.6060219188091
ssa(dp586
I1
(dp587
g3
F0.0054868083309455515
sg569
F2.0
sg5
F1.8103314155171408
sg570
F0.6769191288934578
sg571
F1.0
sg572
F1.0
sg573
g10
sg11
F0.10982789839759627
sg574
F0.28241947420396657
sg575
F1.0
sg576
F1.0
sg577
F0.6522029031908536
sg578
g17
sg579
F0.6822292249492358
sg580
F0.19842788685548196
sg581
F624.002268832068
ssa(dp588
I1
(dp589
g3
F0.002451486259241702
sg569
F2.0
sg5
F2.203353015240726
sg570
F0.716772702433764
sg571
F1.0
sg572
F1.0
sg573
g10
sg11
F0.25310813789284636
sg574
F0.2757659742527181
sg575
F1.0
sg576
F1.0
sg577
F0.5770879304184269
sg578
g17
sg579
F0.4439665968881402
sg580
F0.19879879309384912
sg581
F619.2759132073518
ssa(dp590
I1
(dp591
g3
F0.0035019970435162975
sg569
F2.0
sg5
F2.0131975244527727
sg570
F0.6337347715177277
sg571
F1.0
sg572
F1.0
sg573
g10
sg11
F0.27497938996810994
sg574
F0.3430048016966423
sg575
F1.0
sg576
F1.0
sg577
F0.43476346873165045
sg578
g17
sg579
F0.3302769091214771
sg580
F0.1284941823800163
sg581
F699.23052739399
ssa(dp592
I1
(dp593
g3
F0.0023320790666422854
sg569
F2.0
sg5
F1.8938935105255958
sg570
F0.3626672469580058
sg571
F1.0
sg572
F1.0
sg573
g10
sg11
F0.11877449878414506
sg574
F0.44066316023412255
sg575
F1.0
sg576
F1.0
sg577
F0.2093429452919368
sg578
g17
sg579
F0.7450737668601922
sg580
F0.3533756001766846
sg581
F740.7521849444349
ssa(dp594
I1
(dp595
g3
F0.003661002648222545
sg569
F2.0
sg5
F2.0086470611218816
sg570
F0.330722160070716
sg571
F1.0
sg572
F1.0
sg573
g10
sg11
F0.13875340487362253
sg574
F0.19893787839649563
sg575
F1.0
sg576
F1.0
sg577
F0.36423326930668637
sg578
g17
sg579
F0.44139023281158074
sg580
F0.16664321370056595
sg581
F943.6055659846929
ssa(dp596
I1
(dp597
g3
F0.0014833409183681247
sg569
F2.0
sg5
F2.343617668766345
sg570
F0.5286603621855517
sg571
F1.0
sg572
F1.0
sg573
g10
sg11
F0.1873317448559158
sg574
F0.18436154171106356
sg575
F1.0
sg576
F1.0
sg577
F0.3439882130317222
sg578
g17
sg579
F0.34066244361879816
sg580
F0.15262718860980246
sg581
F951.5196672156119
ssa(dp598
I1
(dp599
g3
F0.003016421732148125
sg569
F2.0
sg5
F2.014605998031264
sg570
F0.7529441262789712
sg571
F1.0
sg572
F1.0
sg573
g10
sg11
F0.22058315611175544
sg574
F0.37886787553255613
sg575
F1.0
sg576
F1.0
sg577
F0.2942163163732219
sg578
g17
sg579
F0.2245931893952272
sg580
F0.033895509163478166
sg581
F507.0982484585664
ssa(dp600
I1
(dp601
g3
F0.0015999695443878722
sS'storageGZ'
p602
F2.0
sg5
F2.181537200846469
sS'k12'
p603
F0.22083234986710137
sS'res2'
p604
F1.0
sS'res1'
p605
F1.0
sS'gz'
p606
g10
sg11
F0.08708835929239342
sS'k1'
p607
F0.25673507420043756
sS'eta'
p608
F1.0
sS'storageVZ'
p609
F1.0
sS'alpha'
p610
F0.3083567544609859
sS'vz'
p611
g17
sS'st'
p612
F0.9712849003704674
sS's0'
p613
F0.026254934408241226
sS'zr'
p614
F510.30791086290304
ssa(dp615
I1
(dp616
g3
F0.002978691378895007
sg602
F2.0
sg5
F1.8870885188880056
sg603
F0.5749787880298592
sg604
F1.0
sg605
F1.0
sg606
g10
sg11
F0.1305451649097588
sg607
F0.2578710436331745
sg608
F1.0
sg609
F1.0
sg610
F0.18573576815139303
sg611
g17
sg612
F0.529608483436935
sg613
F0.3664119474620639
sg614
F1094.1981412769014
ssa(dp617
I1
(dp618
g3
F0.003050251413998522
sg602
F2.0
sg5
F1.8976031477509419
sg603
F0.2557073346003499
sg604
F1.0
sg605
F1.0
sg606
g10
sg11
F0.1310949148450533
sg607
F0.2462718382174141
sg608
F1.0
sg609
F1.0
sg610
F0.5019940395762642
sg611
g17
sg612
F0.38710626217287747
sg613
F0.05092680959514173
sg614
F801.8149307524914
ssa(dp619
I1
(dp620
g3
F0.0011798193387240784
sg602
F2.0
sg5
F2.2975135007083227
sg603
F0.4881036117128322
sg604
F1.0
sg605
F1.0
sg606
g10
sg11
F0.15018392205635311
sg607
F0.4722978287919689
sg608
F1.0
sg609
F1.0
sg610
F0.2113449047218492
sg611
g17
sg612
F0.7626440911492953
sg613
F0.3791260952214552
sg614
F576.4659118843831
ssa(dp621
I1
(dp622
g3
F0.001945963943311802
sg602
F2.0
sg5
F2.213621702539542
sg603
F0.7557925863049482
sg604
F1.0
sg605
F1.0
sg606
g10
sg11
F0.5667660257408405
sg607
F0.14038096870908479
sg608
F1.0
sg609
F1.0
sg610
F0.7536155173380219
sg611
g17
sg612
F0.5299091876916752
sg613
F0.4666224623289615
sg614
F949.435686013969
ssa(dp623
I1
(dp624
g3
F0.0009704483429677289
sg602
F2.0
sg5
F2.4500648026466907
sg603
F0.7847518793207934
sg604
F1.0
sg605
F1.0
sg606
g10
sg11
F0.062242716076140625
sg607
F0.17724611614567132
sg608
F1.0
sg609
F1.0
sg610
F0.4342337356388105
sg611
g17
sg612
F0.6387830215645761
sg613
F0.3733447624686912
sg614
F1149.135638119698
ssa(dp625
I1
(dp626
g3
F0.0049858833520657255
sg602
F2.0
sg5
F1.9112599396044843
sg603
F0.758772746758863
sg604
F1.0
sg605
F1.0
sg606
g10
sg11
F0.12971129131897918
sg607
F0.30103781309248995
sg608
F1.0
sg609
F1.0
sg610
F0.55484763028485
sg611
g17
sg612
F0.6003009477637682
sg613
F0.32831788747013596
sg614
F966.0871206593324
ssa(dp627
I1
(dp628
g3
F0.001949920178004793
sg602
F2.0
sg5
F2.112013169349576
sg603
F0.24154755747127793
sg604
F1.0
sg605
F1.0
sg606
g10
sg11
F0.07972063041770315
sg607
F0.3492155186517014
sg608
F1.0
sg609
F1.0
sg610
F0.3759335866379145
sg611
g17
sg612
F0.5930246522759232
sg613
F0.1346131845710158
sg614
F1025.5490457164956
ssa(dp629
I1
(dp630
g3
F0.004604819718513491
sg602
F2.0
sg5
F1.8564793656692884
sg603
F0.5037245552916672
sg604
F1.0
sg605
F1.0
sg606
g10
sg11
F0.11424664840915383
sg607
F0.35393018273370824
sg608
F1.0
sg609
F1.0
sg610
F0.5080896572828023
sg611
g17
sg612
F0.7611699507654723
sg613
F0.4745845266691795
sg614
F1158.4759639013491
ssa(dp631
I1
(dp632
g3
F0.0028849171014552893
sg602
F2.0
sg5
F2.1019270754546837
sg603
F0.5933967751060076
sg604
F1.0
sg605
F1.0
sg606
g10
sg11
F0.2102332732303911
sg607
F0.18160501361185472
sg608
F1.0
sg609
F1.0
sg610
F0.6104652808819324
sg611
g17
sg612
F0.7878406623848369
sg613
F0.477560846779345
sg614
F753.2188109571679
ssa(dp633
I1
(dp634
g3
F0.0017519209094933297
sS'storageGZ'
p635
F2.0
sg5
F2.219150721411659
sS'k12'
p636
F0.41127729412742026
sS'res2'
p637
F1.0
sS'res1'
p638
F1.0
sS'gz'
p639
g10
sg11
F0.3308227950436031
sS'k1'
p640
F0.1655299513336302
sS'eta'
p641
F1.0
sS'storageVZ'
p642
F1.0
sS'alpha'
p643
F0.359215863898654
sS'vz'
p644
g17
sS'st'
p645
F0.6457233908944157
sS's0'
p646
F0.49847601234962835
sS'zr'
p647
F739.2052237771258
ssa(dp648
I1
(dp649
g3
F0.0010408802769631454
sg635
F2.0
sg5
F2.249661508447649
sg636
F0.38021356962783154
sg637
F1.0
sg638
F1.0
sg639
g10
sg11
F0.33301529996603557
sg640
F0.3761772361404491
sg641
F1.0
sg642
F1.0
sg643
F0.13512626921197443
sg644
g17
sg645
F0.37926621308880104
sg646
F0.29260443353371773
sg647
F735.2432991805485
ssa(dp650
I1
(dp651
g3
F0.004212853050705215
sg635
F2.0
sg5
F1.8480015301635042
sg636
F0.4634343571463089
sg637
F1.0
sg638
F1.0
sg639
g10
sg11
F0.39534663757895583
sg640
F0.27632889703054464
sg641
F1.0
sg642
F1.0
sg643
F0.4198248932959394
sg644
g17
sg645
F0.45512794463677964
sg646
F0.30115539881587916
sg647
F556.6112604584509
ssa(dp652
I1
(dp653
g3
F0.0011814604289664046
sg635
F2.0
sg5
F2.1367171858688376
sg636
F0.3352858772980139
sg637
F1.0
sg638
F1.0
sg639
g10
sg11
F0.49823573908553076
sg640
F0.3731250409173778
sg641
F1.0
sg642
F1.0
sg643
F0.1604153558718439
sg644
g17
sg645
F0.5066248877721529
sg646
F0.4218082828074559
sg647
F847.5604036756156
ssa(dp654
I1
(dp655
g3
F0.0015570221758361322
sg635
F2.0
sg5
F2.2941880716461114
sg636
F0.542726819938185
sg637
F1.0
sg638
F1.0
sg639
g10
sg11
F0.28103712819248666
sg640
F0.20139653035963279
sg641
F1.0
sg642
F1.0
sg643
F0.4841798422185665
sg644
g17
sg645
F0.4394505888974203
sg646
F0.33317439545188116
sg647
F1039.440905936845
ssa(dp656
I1
(dp657
g3
F0.003542405090579657
sg635
F2.0
sg5
F1.8441337201920536
sg636
F0.5149643479939889
sg637
F1.0
sg638
F1.0
sg639
g10
sg11
F0.38630550709890454
sg640
F0.3512734889078868
sg641
F1.0
sg642
F1.0
sg643
F0.27415843339342233
sg644
g17
sg645
F0.34339205645877874
sg646
F0.20275201743547983
sg647
F620.8360732619719
ssa(dp658
I1
(dp659
g3
F0.0018731305917809602
sg635
F2.0
sg5
F2.089488847115294
sg636
F0.424291427707387
sg637
F1.0
sg638
F1.0
sg639
g10
sg11
F0.12311277098634632
sg640
F0.17343035844524435
sg641
F1.0
sg642
F1.0
sg643
F0.2914160412810076
sg644
g17
sg645
F0.5533792010890607
sg646
F0.2898132776750283
sg647
F621.734653420986
ssa(dp660
I1
(dp661
g3
F0.0016891797252736925
sg635
F2.0
sg5
F2.090066147709062
sg636
F0.37076024553891157
sg637
F1.0
sg638
F1.0
sg639
g10
sg11
F0.1232923553085156
sg640
F0.48676423710881567
sg641
F1.0
sg642
F1.0
sg643
F0.18550314567627896
sg644
g17
sg645
F0.6106009657969932
sg646
F0.18195658781316065
sg647
F571.5929587152568
ssa(dp662
I1
(dp663
g3
F0.0019597745640992717
sg635
F2.0
sg5
F2.2158221012603416
sg636
F0.7186061893452851
sg637
F1.0
sg638
F1.0
sg639
g10
sg11
F0.14474729796485936
sg640
F0.34198025351738615
sg641
F1.0
sg642
F1.0
sg643
F0.43357632112250116
sg644
g17
sg645
F0.4149103411659345
sg646
F0.08530550820422977
sg647
F689.2799156374713
ssa(dp664
I1
(dp665
g3
F0.0030030844232086557
sg635
F2.0
sg5
F2.1078382188871827
sg636
F0.6318964750744309
sg637
F1.0
sg638
F1.0
sg639
g10
sg11
F0.578496374584912
sg640
F0.11806637054941865
sg641
F1.0
sg642
F1.0
sg643
F0.49510700138476305
sg644
g17
sg645
F0.10340158039081071
sg646
F0.048179027447130485
sg647
F1083.9877717945285
ssa(dp666
I1
(dp667
g3
F0.0025180285168485833
sS'storageGZ'
p668
F2.0
sg5
F1.985452899775135
sS'k12'
p669
F0.5858371192106413
sS'res2'
p670
F1.0
sS'res1'
p671
F1.0
sS'gz'
p672
g10
sg11
F0.25647605278744057
sS'k1'
p673
F0.42199571525383794
sS'eta'
p674
F1.0
sS'storageVZ'
p675
F1.0
sS'alpha'
p676
F0.2731615050887771
sS'vz'
p677
g17
sS'st'
p678
F0.6708418824757385
sS's0'
p679
F0.4528278452259984
sS'zr'
p680
F620.8424671977275
ssa(dp681
I1
(dp682
g3
F0.0016070956831116302
sg668
F2.0
sg5
F2.278421388095304
sg669
F0.6309752861512351
sg670
F1.0
sg671
F1.0
sg672
g10
sg11
F0.40711161448037925
sg673
F0.22351999844511078
sg674
F1.0
sg675
F1.0
sg676
F0.40265155815098624
sg677
g17
sg678
F0.1384285209202311
sg679
F0.02308154658399636
sg680
F564.0737029756435
ssa(dp683
I1
(dp684
g3
F0.0027372247544742547
sg668
F2.0
sg5
F1.8610452068685461
sg669
F0.24652412992946765
sg670
F1.0
sg671
F1.0
sg672
g10
sg11
F0.09117509695805669
sg673
F0.34186317041285424
sg674
F1.0
sg675
F1.0
sg676
F0.24737256635381366
sg677
g17
sg678
F0.8736062816921019
sg679
F0.32203782732461905
sg680
F633.1033971155043
ssa(dp685
I1
(dp686
g3
F0.0032338109966399053
sg668
F2.0
sg5
F1.9582034627601481
sg669
F0.19321648107978806
sg670
F1.0
sg671
F1.0
sg672
g10
sg11
F0.535517291112607
sg673
F0.21323552525455147
sg674
F1.0
sg675
F1.0
sg676
F0.22141345971672272
sg677
g17
sg678
F0.5117145475556261
sg679
F0.44049801153479384
sg680
F920.165228185024
ssa(dp687
I1
(dp688
g3
F0.0034479805285091477
sg668
F2.0
sg5
F1.8892319233840296
sg669
F0.5963899690249187
sg670
F1.0
sg671
F1.0
sg672
g10
sg11
F0.16703488812603318
sg673
F0.24011481984250388
sg674
F1.0
sg675
F1.0
sg676
F0.30352745016646693
sg677
g17
sg678
F0.562629505365862
sg679
F0.25756292449825163
sg680
F578.7605537014136
ssa(dp689
I1
(dp690
g3
F0.0050645320325402015
sg668
F2.0
sg5
F1.837852115837676
sg669
F0.6595630701200245
sg670
F1.0
sg671
F1.0
sg672
g10
sg11
F0.054152278278604915
sg673
F0.2022141063114331
sg674
F1.0
sg675
F1.0
sg676
F0.42424316810861007
sg677
g17
sg678
F0.8159817756640082
sg679
F0.31493176956547286
sg680
F993.4140735728781
ssa(dp691
I1
(dp692
g3
F0.003988906820116959
sg668
F2.0
sg5
F1.807716521047082
sg669
F0.262474369454361
sg670
F1.0
sg671
F1.0
sg672
g10
sg11
F0.24635544228192796
sg673
F0.31471435131891207
sg674
F1.0
sg675
F1.0
sg676
F0.45234919062420803
sg677
g17
sg678
F0.548028455941378
sg679
F0.34990167653286597
sg680
F526.2036526456741
ssa(dp693
I1
(dp694
g3
F0.0024144762349071285
sg668
F2.0
sg5
F2.017412855406121
sg669
F0.5550957585915629
sg670
F1.0
sg671
F1.0
sg672
g10
sg11
F0.18072329025273864
sg673
F0.3039547632033479
sg674
F1.0
sg675
F1.0
sg676
F0.289773883669682
sg677
g17
sg678
F0.5063253580576358
sg679
F0.2908088580193801
sg680
F1026.0337709117555
ssa(dp695
I1
(dp696
g3
F0.003980154326231273
sg668
F2.0
sg5
F1.8943233193730378
sg669
F0.45365686534981864
sg670
F1.0
sg671
F1.0
sg672
g10
sg11
F0.08426813367683669
sg673
F0.36409448251341014
sg674
F1.0
sg675
F1.0
sg676
F0.2134754742964714
sg677
g17
sg678
F0.599303176848181
sg679
F0.20950046047722287
sg680
F1170.7677303443465
ssa(dp697
I1
(dp698
g3
F0.003119707521959004
sg668
F2.0
sg5
F2.034358547326343
sg669
F0.2610926030824426
sg670
F1.0
sg671
F1.0
sg672
g10
sg11
F0.20221880755398058
sg673
F0.1514297347767331
sg674
F1.0
sg675
F1.0
sg676
F0.46609457665403226
sg677
g17
sg678
F0.5098549022805104
sg679
F0.2089105967071988
sg680
F543.1536484652935
ssa(dp699
I1
(dp700
g3
F0.0009676694734451814
sS'storageGZ'
p701
F2.0
sg5
F2.4314527694926094
sS'k12'
p702
F0.29215662596462155
sS'res2'
p703
F1.0
sS'res1'
p704
F1.0
sS'gz'
p705
g10
sg11
F0.2639076749080448
sS'k1'
p706
F0.2528543088345529
sS'eta'
p707
F1.0
sS'storageVZ'
p708
F1.0
sS'alpha'
p709
F0.25432069652779804
sS'vz'
p710
g17
sS'st'
p711
F0.23331271541127258
sS's0'
p712
F0.04335979257826905
sS'zr'
p713
F731.874951015996
ssa(dp714
I1
(dp715
g3
F0.003553042363792912
sg701
F2.0
sg5
F1.9103713368129216
sg702
F0.33849796061661586
sg703
F1.0
sg704
F1.0
sg705
g10
sg11
F0.14275214648851264
sg706
F0.28809559384315675
sg707
F1.0
sg708
F1.0
sg709
F0.16546139166924723
sg710
g17
sg711
F0.42308280895401396
sg712
F0.05252726786768119
sg713
F654.4806979820639
ssa(dp716
I1
(dp717
g3
F0.0029250474520916164
sg701
F2.0
sg5
F1.9333583699171024
sg702
F0.6203499071546407
sg703
F1.0
sg704
F1.0
sg705
g10
sg11
F0.20129782690270204
sg706
F0.33310986866159825
sg707
F1.0
sg708
F1.0
sg709
F0.2122486248438859
sg710
g17
sg711
F0.3664482741883821
sg712
F0.13662782305404148
sg713
F813.0342107536662
ssa(dp718
I1
(dp719
g3
F0.002172175386330101
sg701
F2.0
sg5
F2.1715656232948044
sg702
F0.33160081220099324
sg703
F1.0
sg704
F1.0
sg705
g10
sg11
F0.41907023977947694
sg706
F0.19101658766353652
sg707
F1.0
sg708
F1.0
sg709
F0.29559826800523265
sg710
g17
sg711
F0.2150657181198446
sg712
F0.12826503790611132
sg713
F1172.9555920354173
ssa(dp720
I1
(dp721
g3
F0.0006324763489521457
sg701
F2.0
sg5
F2.4811141884715613
sg702
F0.7500984756117179
sg703
F1.0
sg704
F1.0
sg705
g10
sg11
F0.1205817221532474
sg706
F0.2953124307918815
sg707
F1.0
sg708
F1.0
sg709
F0.200615004963477
sg710
g17
sg711
F0.6224284893008123
sg712
F0.439804637955791
sg713
F872.5224000076144
ssa(dp722
I1
(dp723
g3
F0.003024202823853665
sg701
F2.0
sg5
F1.9264472059321582
sg702
F0.7972884714138403
sg703
F1.0
sg704
F1.0
sg705
g10
sg11
F0.3054211332535438
sg706
F0.473832908587761
sg707
F1.0
sg708
F1.0
sg709
F0.4521002577357194
sg710
g17
sg711
F0.569732815302911
sg712
F0.4203118658102499
sg713
F640.7380622699029
ssa(dp724
I1
(dp725
g3
F0.0016501626364997047
sg701
F2.0
sg5
F2.3811293025928864
sg702
F0.6070892644815447
sg703
F1.0
sg704
F1.0
sg705
g10
sg11
F0.2211022670959344
sg706
F0.23939537447804704
sg707
F1.0
sg708
F1.0
sg709
F0.4430458710782211
sg710
g17
sg711
F0.49517391388342225
sg712
F0.32211589463303086
sg713
F987.4749523383075
ssa(dp726
I1
(dp727
g3
F0.001028287436514156
sg701
F2.0
sg5
F2.261170044110672
sg702
F0.7503520680237258
sg703
F1.0
sg704
F1.0
sg705
g10
sg11
F0.16367096461386788
sg706
F0.4543139583955543
sg707
F1.0
sg708
F1.0
sg709
F0.2567216558500511
sg710
g17
sg711
F0.4013524915022856
sg712
F0.23415517641530187
sg713
F821.7910798075743
ssa(dp728
I1
(dp729
g3
F0.003588244416684586
sg701
F2.0
sg5
F2.0257428189035975
sg702
F0.3744375937937419
sg703
F1.0
sg704
F1.0
sg705
g10
sg11
F0.22455088019085795
sg706
F0.28195824246747675
sg707
F1.0
sg708
F1.0
sg709
F0.41648290506781055
sg710
g17
sg711
F0.5496357235466078
sg712
F0.32441227732839123
sg713
F698.8818271055203
ssa(dp730
I1
(dp731
g3
F0.0016185496146990256
sg701
F2.0
sg5
F2.2612277034736636
sg702
F0.4085494608254911
sg703
F1.0
sg704
F1.0
sg705
g10
sg11
F0.424423312461717
sg706
F0.2778235375902351
sg707
F1.0
sg708
F1.0
sg709
F0.29811173933470264
sg710
g17
sg711
F0.347086888430698
sg712
F0.17866707357642375
sg713
F555.2648080431211
ssa(dp732
I1
(dp733
g3
F0.0008932993405539069
sS'storageGZ'
p734
F2.0
sg5
F2.3205219079986867
sS'k12'
p735
F0.4171702568045748
sS'res2'
p736
F1.0
sS'res1'
p737
F1.0
sS'gz'
p738
g10
sg11
F0.0894793457545587
sS'k1'
p739
F0.18500697457749932
sS'eta'
p740
F1.0
sS'storageVZ'
p741
F1.0
sS'alpha'
p742
F0.32268904928283415
sS'vz'
p743
g17
sS'st'
p744
F0.4042505856682098
sS's0'
p745
F0.1381335414296907
sS'zr'
p746
F1005.7652375398245
ssa(dp747
I1
(dp748
g3
F0.0007097505734423855
sg734
F2.0
sg5
F2.438667486506183
sg735
F0.13579409820556915
sg736
F1.0
sg737
F1.0
sg738
g10
sg11
F0.5021979680549334
sg739
F0.21108670190385953
sg740
F1.0
sg741
F1.0
sg742
F0.3472871866128462
sg743
g17
sg744
F0.38764755343969304
sg745
F0.3035289838672991
sg746
F841.1790006287923
ssa(dp749
I1
(dp750
g3
F0.0006544359411361919
sg734
F2.0
sg5
F2.426527408717556
sg735
F0.661387839533295
sg736
F1.0
sg737
F1.0
sg738
g10
sg11
F0.1374001913131765
sg739
F0.4677639481123089
sg740
F1.0
sg741
F1.0
sg742
F0.33123988306419205
sg743
g17
sg744
F0.6318063349577879
sg745
F0.30406959841992753
sg746
F617.7917494091922
ssa(dp751
I1
(dp752
g3
F0.0017836899614836923
sg734
F2.0
sg5
F2.0725639501043105
sg735
F0.27461223621080116
sg736
F1.0
sg737
F1.0
sg738
g10
sg11
F0.13257970457150678
sg739
F0.25450189955984237
sg740
F1.0
sg741
F1.0
sg742
F0.33900636476460794
sg743
g17
sg744
F0.6084659451209034
sg745
F0.3042805498380706
sg746
F803.9101609958764
ssa(dp753
I1
(dp754
g3
F0.0036186856664019427
sg734
F2.0
sg5
F1.9507049342314084
sg735
F0.6844511391898817
sg736
F1.0
sg737
F1.0
sg738
g10
sg11
F0.06066631183875075
sg739
F0.13337608007158874
sg740
F1.0
sg741
F1.0
sg742
F0.6753096020769963
sg743
g17
sg744
F0.5354365825654162
sg745
F0.0820605240842805
sg746
F1139.033429153962
ssa(dp755
I1
(dp756
g3
F0.0040818137203440874
sg734
F2.0
sg5
F1.8758049837860873
sg735
F0.7640256041915175
sg736
F1.0
sg737
F1.0
sg738
g10
sg11
F0.07954956118120135
sg739
F0.32418057570001274
sg740
F1.0
sg741
F1.0
sg742
F0.3629018781572362
sg743
g17
sg744
F0.7820649737921809
sg745
F0.24766196933300727
sg746
F801.703456636503
ssa(dp757
I1
(dp758
g3
F0.003938208344158343
sg734
F2.0
sg5
F1.9574993826854914
sg735
F0.7830600984246626
sg736
F1.0
sg737
F1.0
sg738
g10
sg11
F0.4040622863620897
sg739
F0.1578095700305735
sg740
F1.0
sg741
F1.0
sg742
F0.5652760808186708
sg743
g17
sg744
F0.17267443274132527
sg745
F0.04580317171806453
sg746
F713.2248846067155
ssa(dp759
I1
(dp760
g3
F0.0034831320879389603
sg734
F2.0
sg5
F1.8305004342386626
sg735
F0.13347777625187401
sg736
F1.0
sg737
F1.0
sg738
g10
sg11
F0.0854978374599778
sg739
F0.18284730300224122
sg740
F1.0
sg741
F1.0
sg742
F0.3923412540549295
sg743
g17
sg744
F0.7898006223092741
sg745
F0.3984096119896523
sg746
F740.6936732960748
ssa(dp761
I1
(dp762
g3
F0.0025250958586386226
sg734
F2.0
sg5
F1.8997331112170905
sg735
F0.4609350142935669
sg736
F1.0
sg737
F1.0
sg738
g10
sg11
F0.12540304997917986
sg739
F0.45186290837139725
sg740
F1.0
sg741
F1.0
sg742
F0.256755579407713
sg743
g17
sg744
F0.7361381979700515
sg745
F0.2651098224378113
sg746
F561.3748191912154
ssa(dp763
I1
(dp764
g3
F0.0031605828796471966
sg734
F2.0
sg5
F1.8763249142727594
sg735
F0.4276943052842664
sg736
F1.0
sg737
F1.0
sg738
g10
sg11
F0.12006037941617395
sg739
F0.2729437388389523
sg740
F1.0
sg741
F1.0
sg742
F0.24523232711233584
sg743
g17
sg744
F0.7329175027461635
sg745
F0.4666219927299096
sg746
F583.6585309032511
ssa(dp765
I1
(dp766
g3
F0.0009738508199580352
sS'storageGZ'
p767
F2.0
sg5
F2.4030545707346054
sS'k12'
p768
F0.7167023231262974
sS'res2'
p769
F1.0
sS'res1'
p770
F1.0
sS'gz'
p771
g10
sg11
F0.12996163095842422
sS'k1'
p772
F0.43375898505601596
sS'eta'
p773
F1.0
sS'storageVZ'
p774
F1.0
sS'alpha'
p775
F0.611011542863753
sS'vz'
p776
g17
sS'st'
p777
F0.5300760088828274
sS's0'
p778
F0.2693332227001993
sS'zr'
p779
F808.4295916554432
ssa(dp780
I1
(dp781
g3
F0.002859949942298607
sg767
F2.0
sg5
F1.9312060122521908
sg768
F0.4102706415493432
sg769
F1.0
sg770
F1.0
sg771
g10
sg11
F0.2216564910637614
sg772
F0.21803849564783073
sg773
F1.0
sg774
F1.0
sg775
F0.28415324318870044
sg776
g17
sg777
F0.2960112908764417
sg778
F0.143990071743973
sg779
F1030.788014589239
ssa(dp782
I1
(dp783
g3
F0.0019286287584460245
sg767
F2.0
sg5
F2.2872793605109885
sg768
F0.15771456384382837
sg769
F1.0
sg770
F1.0
sg771
g10
sg11
F0.17317172632512373
sg772
F0.12394205354402524
sg773
F1.0
sg774
F1.0
sg775
F0.5727033023903393
sg776
g17
sg777
F0.9343838717841247
sg778
F0.4789842121818628
sg779
F650.0356199192352
ssa(dp784
I1
(dp785
g3
F0.0037390451384237146
sg767
F2.0
sg5
F2.069156985049113
sg768
F0.6550053239497873
sg769
F1.0
sg770
F1.0
sg771
g10
sg11
F0.4636622333991601
sg772
F0.13632317085865325
sg773
F1.0
sg774
F1.0
sg775
F0.504964266959038
sg776
g17
sg777
F0.38931659165320465
sg778
F0.2868513487889095
sg779
F874.8546286602342
ssa(dp786
I1
(dp787
g3
F0.00185016948783588
sg767
F2.0
sg5
F2.203337515527628
sg768
F0.7682970391658503
sg769
F1.0
sg770
F1.0
sg771
g10
sg11
F0.1422264225861763
sg772
F0.22857181637476198
sg773
F1.0
sg774
F1.0
sg775
F0.48188860706686126
sg776
g17
sg777
F0.6000245912373883
sg778
F0.3067755955121089
sg779
F627.5645645971777
ssa(dp788
I1
(dp789
g3
F0.0016507631530811515
sg767
F2.0
sg5
F2.1619581677457
sg768
F0.7503614779304166
sg769
F1.0
sg770
F1.0
sg771
g10
sg11
F0.5681589794599113
sg772
F0.412355404128301
sg773
F1.0
sg774
F1.0
sg775
F0.26045455852514493
sg776
g17
sg777
F0.24068680447337362
sg778
F0.12439290886796212
sg779
F502.95972842833584
ssa(dp790
I1
(dp791
g3
F0.0012729332777889324
sg767
F2.0
sg5
F2.300577208156363
sg768
F0.11329296611362209
sg769
F1.0
sg770
F1.0
sg771
g10
sg11
F0.54563373838967
sg772
F0.2221698993757229
sg773
F1.0
sg774
F1.0
sg775
F0.2996587268244139
sg776
g17
sg777
F0.551820150615949
sg778
F0.457973765062908
sg779
F703.3006755245805
ssa(dp792
I1
(dp793
g3
F0.0017850517930935103
sg767
F2.0
sg5
F2.4040733436958295
sg768
F0.7064933245071403
sg769
F1.0
sg770
F1.0
sg771
g10
sg11
F0.5368455848774496
sg772
F0.3062910808257457
sg773
F1.0
sg774
F1.0
sg775
F0.5037559605056978
sg776
g17
sg777
F0.3916858934814291
sg778
F0.2614980743717147
sg779
F515.5861058367826
ssa(dp794
I1
(dp795
g3
F0.004248784268572871
sg767
F2.0
sg5
F2.0612567956598467
sg768
F0.2466623389626889
sg769
F1.0
sg770
F1.0
sg771
g10
sg11
F0.2730304142664643
sg772
F0.18000336207270967
sg773
F1.0
sg774
F1.0
sg775
F0.4941659037525268
sg776
g17
sg777
F0.30269670871295473
sg778
F0.003100091536905436
sg779
F502.23952865816676
ssa(dp796
I1
(dp797
g3
F0.0019162307771870002
sg767
F2.0
sg5
F2.132442088121583
sg768
F0.1324989030545985
sg769
F1.0
sg770
F1.0
sg771
g10
sg11
F0.43218551363136143
sg772
F0.3029472860429117
sg773
F1.0
sg774
F1.0
sg775
F0.2811379555989976
sg776
g17
sg777
F0.4531360727595368
sg778
F0.3027746061334309
sg779
F543.8675993039467
ssa.