(lp0
(dp1
I1
(dp2
S'a'
p3
F0.0070284242959243876
sS'k12'
p4
F0.30542333992452025
sS'b'
p5
F2.034716722665002
sS'zrS'
p6
F50.0
sS'zrR'
p7
F589.3732907157437
sS'f'
p8
F0.34575044323206483
sS'res2'
p9
F1.0
sS's0R'
p10
F0.22036141970075837
sS'res1'
p11
F1.0
sS'storageR'
p12
F100.0
sS'gz'
p13
cgroundwaterZone
LinearToNonlinearReservoir
p14
sS's0S'
p15
F0.19
sS'k1'
p16
F0.2768966061952428
sS'eta'
p17
F0.8919247094670768
sS'stR'
p18
F0.6737489746108014
sS'stS'
p19
F0.6
sS'alpha'
p20
F0.4426415062432685
sS'nR'
p21
F0.19988223107362146
sS'nS'
p22
F0.4
sS'storageS'
p23
F1.0
sS'vz'
p24
cvadoseZone
PreferentialRockMoistureZone
p25
ssa(dp26
I1
(dp27
g3
F0.004400508365295697
sg4
F0.41763162931488973
sg5
F1.8955823472911055
sg6
F50.0
sg7
F977.0746428551406
sg8
F0.6233223361098997
sg9
F1.0
sg10
F0.24700669918688345
sg11
F1.0
sg12
F100.0
sg13
g14
sg15
F0.19
sg16
F0.37362615652883846
sg17
F0.7172318347210254
sg18
F0.40189886640677197
sg19
F0.6
sg20
F0.3984143139454436
sg21
F0.2394776277816677
sg22
F0.4
sg23
F1.0
sg24
g25
ssa(dp28
I1
(dp29
g3
F0.0039776433637830734
sS'k12'
p30
F0.40682488135190004
sg5
F1.8383490583070947
sS'zrS'
p31
F50.0
sS'zrR'
p32
F638.7053673930084
sg8
F0.14714737568166367
sS'res2'
p33
F1.0
sS's0R'
p34
F0.20024052423313013
sS'res1'
p35
F1.0
sS'storageR'
p36
F100.0
sS'gz'
p37
g14
sS's0S'
p38
F0.19
sS'k1'
p39
F0.3414426049658522
sS'eta'
p40
F0.9712120945294888
sS'stR'
p41
F0.3123512497770509
sS'stS'
p42
F0.6
sS'alpha'
p43
F0.20565360860169724
sS'nR'
p44
F0.24694833727745796
sS'nS'
p45
F0.4
sS'storageS'
p46
F1.0
sS'vz'
p47
g25
ssa(dp48
I1
(dp49
g3
F0.00736006561557029
sg30
F0.48600903357313646
sg5
F2.065101848168763
sg31
F50.0
sg32
F1109.962437539029
sg8
F0.6212779780533485
sg33
F1.0
sg34
F0.09293428439154368
sg35
F1.0
sg36
F100.0
sg37
g14
sg38
F0.19
sg39
F0.3866643505143091
sg40
F0.5854304659302709
sg41
F0.7861622860245405
sg42
F0.6
sg43
F0.7431273921267914
sg44
F0.21610098774997258
sg45
F0.4
sg46
F1.0
sg47
g25
ssa(dp50
I1
(dp51
g3
F0.0029306915256934454
sS'k12'
p52
F0.4499067913928043
sg5
F2.0759047920698013
sS'zrS'
p53
F50.0
sS'zrR'
p54
F1083.502612074491
sg8
F0.10740341555716473
sS'res2'
p55
F1.0
sS's0R'
p56
F0.18862123047534163
sS'res1'
p57
F1.0
sS'storageR'
p58
F100.0
sS'gz'
p59
g14
sS's0S'
p60
F0.19
sS'k1'
p61
F0.24362938148396202
sS'eta'
p62
F0.6758041523473086
sS'stR'
p63
F0.5160833497805194
sS'stS'
p64
F0.6
sS'alpha'
p65
F0.08268284537712997
sS'nR'
p66
F0.2918023477348143
sS'nS'
p67
F0.4
sS'storageS'
p68
F1.0
sS'vz'
p69
g25
ssa(dp70
I1
(dp71
g3
F0.0026459329370450463
sg52
F0.42037509954582386
sg5
F2.088341814290325
sg53
F50.0
sg54
F874.679618461854
sg8
F0.7396076853440379
sg55
F1.0
sg56
F0.0094149798348945
sg57
F1.0
sg58
F100.0
sg59
g14
sg60
F0.19
sg61
F0.2229852180796037
sg62
F0.8918639877577172
sg63
F0.6170356510039022
sg64
F0.6
sg65
F0.4447394182633071
sg66
F0.15807433893562367
sg67
F0.4
sg68
F1.0
sg69
g25
ssa(dp72
I1
(dp73
g3
F0.009411654407776677
sS'k12'
p74
F0.4328770753883633
sg5
F2.3854610271154018
sS'zrS'
p75
F50.0
sS'zrR'
p76
F769.0454347796237
sg8
F0.31522600349339724
sS'res2'
p77
F1.0
sS's0R'
p78
F0.07501983477772733
sS'res1'
p79
F1.0
sS'storageR'
p80
F100.0
sS'gz'
p81
g14
sS's0S'
p82
F0.19
sS'k1'
p83
F0.3107349577656704
sS'eta'
p84
F0.6797347510790692
sS'stR'
p85
F0.38071222502390734
sS'stS'
p86
F0.6
sS'alpha'
p87
F0.9267769103598507
sS'nR'
p88
F0.24258107515069627
sS'nS'
p89
F0.4
sS'storageS'
p90
F1.0
sS'vz'
p91
g25
ssa(dp92
I1
(dp93
g3
F0.007749797639566427
sg74
F0.43823007032268035
sg5
F2.087029867866987
sg75
F50.0
sg76
F638.1789509037726
sg8
F0.16975189343169578
sg77
F1.0
sg78
F0.33698473691573805
sg79
F1.0
sg80
F100.0
sg81
g14
sg82
F0.19
sg83
F0.349606107650366
sg84
F0.8153555867734816
sg85
F0.5315671616155302
sg86
F0.6
sg87
F0.8293105087272061
sg88
F0.3616712052504797
sg89
F0.4
sg90
F1.0
sg91
g25
ssa.