(lp0
(dp1
I1
(dp2
S'a'
p3
F0.001474823625784852
sS'k12'
p4
F0.4910969274708344
sS'b'
p5
F2.1250562837165923
sS'zrS'
p6
F50.0
sS'zrR'
p7
F839.0311785222353
sS'f'
p8
F0.5954947133904966
sS'res2'
p9
F1.0
sS's0R'
p10
F0.2520860978094059
sS'res1'
p11
F1.0
sS'storageR'
p12
F100.0
sS'gz'
p13
cgroundwaterZone
LinearToNonlinearReservoir
p14
sS's0S'
p15
F0.19
sS'k1'
p16
F0.3590127536378387
sS'stR'
p17
F0.3152916778858965
sS'stS'
p18
F0.6
sS'nR'
p19
F0.38487442943010597
sS'nS'
p20
F0.4
sS'storageS'
p21
F1.0
sS'vz'
p22
cvadoseZone
SimpleRockMoistureZone
p23
ssa(dp24
I1
(dp25
g3
F0.002807688781335308
sg4
F0.37960607310190864
sg5
F1.8025661076352533
sg6
F50.0
sg7
F1129.1342758944213
sg8
F0.13504481975318436
sg9
F1.0
sg10
F0.1342741709578253
sg11
F1.0
sg12
F100.0
sg13
g14
sg15
F0.19
sg16
F0.21697994081228578
sg17
F0.14852900578568784
sg18
F0.6
sg19
F0.1290971226051685
sg20
F0.4
sg21
F1.0
sg22
g23
ssa(dp26
I1
(dp27
g3
F0.003445172578454824
sS'k12'
p28
F0.33351798003372246
sg5
F2.0159817834327614
sS'zrS'
p29
F50.0
sS'zrR'
p30
F948.0528778161579
sg8
F0.20943428603361866
sS'res2'
p31
F1.0
sS's0R'
p32
F0.3138521114083536
sS'res1'
p33
F1.0
sS'storageR'
p34
F100.0
sS'gz'
p35
g14
sS's0S'
p36
F0.19
sS'k1'
p37
F0.3952939071493389
sS'stR'
p38
F0.11845532472086458
sS'stS'
p39
F0.6
sS'nR'
p40
F0.27855236786585064
sS'nS'
p41
F0.4
sS'storageS'
p42
F1.0
sS'vz'
p43
g23
ssa(dp44
I1
(dp45
g3
F0.005715296881188296
sg28
F0.3634280710625803
sg5
F1.965307583381498
sg29
F50.0
sg30
F591.6420297047505
sg8
F0.728712780741668
sg31
F1.0
sg32
F0.245973467117464
sg33
F1.0
sg34
F100.0
sg35
g14
sg36
F0.19
sg37
F0.3952091299324647
sg38
F0.7132001655748259
sg39
F0.6
sg40
F0.10338485626254845
sg41
F0.4
sg42
F1.0
sg43
g23
ssa(dp46
I1
(dp47
g3
F0.009952029768908233
sS'k12'
p48
F0.4048898513736272
sg5
F1.9804599438903707
sS'zrS'
p49
F50.0
sS'zrR'
p50
F539.2593962860371
sg8
F0.4679999113419945
sS'res2'
p51
F1.0
sS's0R'
p52
F0.3779239728604915
sS'res1'
p53
F1.0
sS'storageR'
p54
F100.0
sS'gz'
p55
g14
sS's0S'
p56
F0.19
sS'k1'
p57
F0.2159633405841338
sS'stR'
p58
F0.11821251900738226
sS'stS'
p59
F0.6
sS'nR'
p60
F0.3703285904986462
sS'nS'
p61
F0.4
sS'storageS'
p62
F1.0
sS'vz'
p63
g23
ssa(dp64
I1
(dp65
g3
F0.0009806998584809355
sg48
F0.35591150714864367
sg5
F1.836549404267252
sg49
F50.0
sg50
F534.4425037393462
sg8
F0.14217923519986178
sg51
F1.0
sg52
F0.2024171647298493
sg53
F1.0
sg54
F100.0
sg55
g14
sg56
F0.19
sg57
F0.2949148509726329
sg58
F0.782619158658708
sg59
F0.6
sg60
F0.23017809910255566
sg61
F0.4
sg62
F1.0
sg63
g23
ssa(dp66
I1
(dp67
g3
F0.005141205020063901
sS'k12'
p68
F0.424223755005392
sg5
F2.469014441588518
sS'zrS'
p69
F50.0
sS'zrR'
p70
F758.1078075185111
sg8
F0.11894774852910084
sS'res2'
p71
F1.0
sS's0R'
p72
F0.24516107107001173
sS'res1'
p73
F1.0
sS'storageR'
p74
F100.0
sS'gz'
p75
g14
sS's0S'
p76
F0.19
sS'k1'
p77
F0.2693207719002065
sS'stR'
p78
F0.2305910544541214
sS'stS'
p79
F0.6
sS'nR'
p80
F0.038732092035976246
sS'nS'
p81
F0.4
sS'storageS'
p82
F1.0
sS'vz'
p83
g23
ssa(dp84
I1
(dp85
g3
F0.0019071844364375575
sg68
F0.30443194974192517
sg5
F2.457673013521788
sg69
F50.0
sg70
F972.2939688487434
sg8
F0.40998005354556866
sg71
F1.0
sg72
F0.21755280105170685
sg73
F1.0
sg74
F100.0
sg75
g14
sg76
F0.19
sg77
F0.3414130595976901
sg78
F0.1684355027055114
sg79
F0.6
sg80
F0.22278033177585274
sg81
F0.4
sg82
F1.0
sg83
g23
ssa.