(lp0
(dp1
I1
(dp2
S'a'
p3
F0.0036163504648791373
sS'storageGZ'
p4
F2.0
sS'b'
p5
F2.0447072600565446
sS'k12'
p6
F0.5565669590905479
sS'res2'
p7
F1.0
sS'res1'
p8
F1.0
sS'gz'
p9
cgroundwaterZone
LinearToNonlinearReservoir
p10
sS'n'
p11
F0.12540262705686836
sS'k1'
p12
F0.13485770979440603
sS'eta'
p13
F1.0
sS'storageVZ'
p14
F1.0
sS'alpha'
p15
F0.3978326801232093
sS'vz'
p16
cvadoseZone
PorporatoPreferentialVadoseZone
p17
sS'st'
p18
F0.37224430666757136
sS's0'
p19
F0.06445549948427237
sS'zr'
p20
F1163.1263105341654
ssa(dp21
I1
(dp22
g3
F0.007424716364140362
sg4
F2.0
sg5
F1.9644273372245085
sg6
F0.4302311292306585
sg7
F1.0
sg8
F1.0
sg9
g10
sg11
F0.08354596963608141
sg12
F0.17387849318433404
sg13
F1.0
sg14
F1.0
sg15
F0.9128478411050942
sg16
g17
sg18
F0.7181152855050935
sg19
F0.02871539701405673
sg20
F533.3766544426073
ssa(dp23
I1
(dp24
g3
F0.0010514664413753159
sg4
F2.0
sg5
F2.042031150960506
sg6
F0.7928766423689979
sg7
F1.0
sg8
F1.0
sg9
g10
sg11
F0.5383038248764851
sg12
F0.2396475205213653
sg13
F1.0
sg14
F1.0
sg15
F0.7477949316125161
sg16
g17
sg18
F0.545435259502378
sg19
F0.3268022033785421
sg20
F704.1961851195142
ssa(dp25
I1
(dp26
g3
F0.008773838959560458
sg4
F2.0
sg5
F2.4651106807063528
sg6
F0.2777917272361172
sg7
F1.0
sg8
F1.0
sg9
g10
sg11
F0.5637809045580542
sg12
F0.3267843082269463
sg13
F1.0
sg14
F1.0
sg15
F0.5837978695409511
sg16
g17
sg18
F0.9175017224321267
sg19
F0.24058982453443362
sg20
F1068.9327896861241
ssa(dp27
a(dp28
I1
(dp29
g3
F0.0035590100986373856
sS'storageGZ'
p30
F2.0
sg5
F1.981703650709399
sS'k12'
p31
F0.1937894762935175
sS'res2'
p32
F1.0
sS'res1'
p33
F1.0
sS'gz'
p34
g10
sg11
F0.30653330230117065
sS'k1'
p35
F0.06945728286084168
sS'eta'
p36
F1.0
sS'storageVZ'
p37
F1.0
sS'alpha'
p38
F0.5466669391614227
sS'vz'
p39
g17
sS'st'
p40
F0.2194887749773724
sS's0'
p41
F0.17650209770386655
sS'zr'
p42
F1019.6295100355584
ssa(dp43
I1
(dp44
g3
F0.0012583600202821631
sg30
F2.0
sg5
F2.449882925242862
sg31
F0.1667296668246993
sg32
F1.0
sg33
F1.0
sg34
g10
sg11
F0.07452426812874356
sg35
F0.19235909575520094
sg36
F1.0
sg37
F1.0
sg38
F0.4895670993887491
sg39
g17
sg40
F0.4411692998373997
sg41
F0.02213633711596602
sg42
F688.3624865880458
ssa(dp45
I1
(dp46
g3
F0.001513206075404373
sg30
F2.0
sg5
F1.887006933397474
sg31
F0.32467153890912653
sg32
F1.0
sg33
F1.0
sg34
g10
sg11
F0.4703170925301276
sg35
F0.1475894599151066
sg36
F1.0
sg37
F1.0
sg38
F0.6869227000097285
sg39
g17
sg40
F0.6686676027811458
sg41
F0.3289202603188635
sg42
F1047.8394968407515
ssa(dp47
I1
(dp48
g3
F0.004671540630886383
sg30
F2.0
sg5
F2.0638542051874134
sg31
F0.35498355611699667
sg32
F1.0
sg33
F1.0
sg34
g10
sg11
F0.18168505017014686
sg35
F0.5808098708820372
sg36
F1.0
sg37
F1.0
sg38
F0.25590716406340125
sg39
g17
sg40
F0.9877791482505398
sg41
F0.24436217129417237
sg42
F918.6658720467685
ssa(dp49
I1
(dp50
g3
F0.003996784826157524
sg30
F2.0
sg5
F2.3750982851826246
sg31
F0.783325950470424
sg32
F1.0
sg33
F1.0
sg34
g10
sg11
F0.3466048164204309
sg35
F0.1371832250571584
sg36
F1.0
sg37
F1.0
sg38
F0.5454934845228929
sg39
g17
sg40
F0.992179111019383
sg41
F0.2878386208802152
sg42
F1059.0795078564638
ssa(dp51
I1
(dp52
g3
F0.0074461267308074015
sS'storageGZ'
p53
F2.0
sg5
F1.9659444519680345
sS'k12'
p54
F0.11197745190031953
sS'res2'
p55
F1.0
sS'res1'
p56
F1.0
sS'gz'
p57
g10
sg11
F0.21464584440421486
sS'k1'
p58
F0.29232458453447224
sS'eta'
p59
F1.0
sS'storageVZ'
p60
F1.0
sS'alpha'
p61
F0.5859654863428938
sS'vz'
p62
g17
sS'st'
p63
F0.7402848967847623
sS's0'
p64
F0.4882563891167489
sS'zr'
p65
F555.149155271801
ssa(dp66
I1
(dp67
g3
F0.005528810012786427
sg53
F2.0
sg5
F2.0129948122497017
sg54
F0.7352580581456571
sg55
F1.0
sg56
F1.0
sg57
g10
sg11
F0.48840409286426906
sg58
F0.06199348616847038
sg59
F1.0
sg60
F1.0
sg61
F0.22791619913429856
sg62
g17
sg63
F0.1389169534143737
sg64
F0.07109857119911528
sg65
F722.0695348688014
ssa(dp68
I1
(dp69
g3
F0.001133533053862957
sg53
F2.0
sg5
F1.9963335540445837
sg54
F0.24439964084016336
sg55
F1.0
sg56
F1.0
sg57
g10
sg11
F0.14906131208573514
sg58
F0.272454056056256
sg59
F1.0
sg60
F1.0
sg61
F0.226997782250427
sg62
g17
sg63
F0.960202526264144
sg64
F0.4747042020392904
sg65
F1046.483746942342
ssa(dp70
I1
(dp71
g3
F0.008920122847092255
sg53
F2.0
sg5
F2.1721233834480524
sg54
F0.5817949568286173
sg55
F1.0
sg56
F1.0
sg57
g10
sg11
F0.10996397621721624
sg58
F0.3344697806072621
sg59
F1.0
sg60
F1.0
sg61
F0.5224763150921221
sg62
g17
sg63
F0.4597501755349568
sg64
F0.48069659747203675
sg65
F911.9030355747227
ssa(dp72
I1
(dp73
g3
F0.0032143293828304715
sg53
F2.0
sg5
F2.0254373806841817
sg54
F0.4005051184896174
sg55
F1.0
sg56
F1.0
sg57
g10
sg11
F0.4699532400206056
sg58
F0.5560256864566305
sg59
F1.0
sg60
F1.0
sg61
F0.22026772460678612
sg62
g17
sg63
F0.7137129699823602
sg64
F0.29149564873392936
sg65
F725.3277266885766
ssa(dp74
I1
(dp75
g3
F0.008171411923245182
sS'storageGZ'
p76
F2.0
sg5
F2.497784508656832
sS'k12'
p77
F0.08563105075992818
sS'res2'
p78
F1.0
sS'res1'
p79
F1.0
sS'gz'
p80
g10
sg11
F0.5688798476677361
sS'k1'
p81
F0.18412836822818918
sS'eta'
p82
F1.0
sS'storageVZ'
p83
F1.0
sS'alpha'
p84
F0.23227953749441216
sS'vz'
p85
g17
sS'st'
p86
F0.5321738941986055
sS's0'
p87
F0.31704342442482486
sS'zr'
p88
F791.8466554517843
ssa(dp89
I1
(dp90
g3
F0.00495066416612434
sg76
F2.0
sg5
F2.292575995758072
sg77
F0.35983951632361205
sg78
F1.0
sg79
F1.0
sg80
g10
sg11
F0.3296852710323925
sg81
F0.43465669823176145
sg82
F1.0
sg83
F1.0
sg84
F0.5078316226579471
sg85
g17
sg86
F0.35665835432278437
sg87
F0.08347838457042378
sg88
F685.4234320700899
ssa(dp91
I1
(dp92
g3
F0.00527253363419143
sg76
F2.0
sg5
F1.8334532756299713
sg77
F0.6044864550477651
sg78
F1.0
sg79
F1.0
sg80
g10
sg11
F0.41483176230666896
sg81
F0.3664788240694262
sg82
F1.0
sg83
F1.0
sg84
F0.675105062144221
sg85
g17
sg86
F0.37753895485657374
sg87
F0.32272925879855724
sg88
F529.2834971210186
ssa(dp93
I1
(dp94
g3
F0.007225431453251593
sg76
F2.0
sg5
F1.8254387297839587
sg77
F0.5846777110474117
sg78
F1.0
sg79
F1.0
sg80
g10
sg11
F0.34908777764504867
sg81
F0.5974209895664911
sg82
F1.0
sg83
F1.0
sg84
F0.4434825568896259
sg85
g17
sg86
F0.6789035316893534
sg87
F0.48997605970312647
sg88
F627.2577460474494
ssa(dp95
I1
(dp96
g3
F0.002615339935174809
sg76
F2.0
sg5
F2.089445170218819
sg77
F0.3390289747078698
sg78
F1.0
sg79
F1.0
sg80
g10
sg11
F0.14173546242115725
sg81
F0.426074219207704
sg82
F1.0
sg83
F1.0
sg84
F0.25615059563043396
sg85
g17
sg86
F0.7503517762458617
sg87
F0.2433299459144096
sg88
F972.3467999922234
ssa.