(lp0
F0.8863510306594471
aF0.886898344372793
aF0.894925748823387
aF0.886689373572821
aF0.8839284725149116
aF0.8929068345585167
aF0.8846106814483798
aF0.884699464924729
aF0.8907733426529872
aF0.8867075938184348
aF0.8924524823828204
aF0.8861446070126575
aF0.891961670282147
aF0.8857043388983343
aF0.8889030500630793
aF0.8912120537299796
aF0.8841806403200205
aF0.8900651902917008
aF0.8929332101809176
aF0.8815773832136703
aF0.8917931073862934
aF0.8912021024563956
aF0.8863923724723474
aF0.8943629471836131
aF0.891814885799422
aF0.8915512075008039
aF0.8822735350626247
aF0.888530358365998
aF0.8900359201844048
aF0.8838813497606325
aF0.8924975798104364
aF0.8926892170896105
aF0.8930124235214298
aF0.8890625178315289
aF0.8885992339663613
aF0.8908403508470975
aF0.8839030354413201
aF0.886109507146642
aF0.8795515646893941
aF0.8882753391549263
aF0.8940449085795671
aF0.8838635243847747
aF0.8883069881778195
aF0.8845099001342014
aF0.8916630625349137
aF0.8847288440541736
aF0.8901180210320572
aF0.8924469084104798
aF0.8839525080987988
aF0.8839834010024845
aF0.8900973425384326
aF0.8872698703436047
aF0.8898987519761095
aF0.8872128740820889
aF0.8894679360857699
aF0.889686367684088
aF0.8847351971628717
aF0.8866936727578176
aF0.8853520252453921
aF0.8846693537693607
aF0.8907732829628612
aF0.8887307624719812
aF0.8885234953012743
aF0.888999273820359
aF0.8903923060383302
aF0.8895237892955975
aF0.8700650973986208
aF0.8796104258938053
aF0.886012494805196
aF0.8773599575984894
aF0.891225060144493
aF0.8873918287791032
aF0.8870902302790227
aF0.8848382204533785
aF0.887622381729641
aF0.8866330733527137
aF0.8885931070117442
aF0.8808319244802593
aF0.8812695245370161
aF0.8830688950480761
aF0.8927929466009571
aF0.8869940649326945
aF0.8884826077185215
aF0.890003416014747
aF0.8856179905232247
aF0.887941581421761
aF0.8857465521726519
aF0.8741320412131761
aF0.8854107532977851
aF0.8875574379314611
aF0.8911181683135982
aF0.8877443918333789
aF0.8945663154897623
aF0.8893486655672727
aF0.8826744547205354
aF0.892599995232664
aF0.8833416452179922
aF0.884465257245877
aF0.888605783344439
aF0.8901044328517267
aF0.88781697124902
aF0.8885647213549037
aF0.8914073213434888
aF0.8929823449255513
aF0.8930518856422064
aF0.8866578490989651
aF0.8842598645208933
aF0.8858509992210284
aF0.8837601009216913
aF0.8805652673277126
aF0.8851951929679729
aF0.8876263211753486
aF0.8883640060091651
aF0.886726916710378
aF0.8893048689243597
aF0.8895050691872279
aF0.8812244528125925
aF0.8857665621064522
aF0.8819722299590873
aF0.8822271039248237
aF0.8905643369863022
aF0.884240869738446
aF0.8898600309074366
aF0.8795392402187602
aF0.8874411796466883
aF0.888748760174154
aF0.8899222382117828
aF0.8831396896701195
aF0.8871811271840689
aF0.8856741021439782
aF0.8914425129748729
aF0.8944375245811527
aF0.8923551356321163
aF0.8889255542209368
aF0.8913591998519265
aF0.8895329351632135
aF0.8865698044615115
aF0.8919143681494868
aF0.8905361615043917
aF0.8863090551221845
aF0.8878202842017451
aF0.8923175544650706
aF0.8886832763627079
aF0.8920180659965518
aF0.8898117422852836
aF0.8924137537254923
aF0.8864955920996621
aF0.8845607534921461
aF0.8886852327728122
aF0.8843846192447306
aF0.8978839234194854
aF0.889805309597129
aF0.8947443557786098
aF0.8930327907209511
aF0.8863279372595656
aF0.8882399044753844
aF0.8938006705566768
aF0.8883078787265973
aF0.8884846680418688
aF0.8844009135018124
aF0.889490326452798
aF0.8889420446102756
aF0.8857451818527334
aF0.8853542638916281
aF0.8864979337486973
aF0.8871793124982759
aF0.8860713240670356
aF0.8864015781358568
aF0.8876579606696402
aF0.886982593409972
aF0.8892628481583527
aF0.8933573781608807
aF0.8924869153497987
aF0.8740265917667698
aF0.882899477875178
aF0.8963392600907024
aF0.8828239285387262
aF0.8656742811238219
aF0.8877838868960344
aF0.8897430631829052
aF0.8905830346757668
aF0.8911112943830691
aF0.8850439079614711
aF0.8944937878708735
aF0.8896009636580949
aF0.8840759528898644
aF0.8880786647469516
aF0.882374326443961
aF0.8855447997470633
aF0.8860316465876421
aF0.8855460630859643
aF0.889851649791163
aF0.8915622327315774
aF0.8852364111261335
aF0.8909511503765383
aF0.8911838911127447
aF0.8779245082869728
aF0.886514857201523
aF0.8713998257107491
aF0.8891406673882452
aF0.8936544321779382
aF0.8818889637131154
aF0.8865829826380942
aF0.8892108846888668
aF0.8922773126998729
aF0.8878109349477015
aF0.8726074824073424
aF0.8897627259527997
aF0.882378342858297
aF0.8706364255426089
aF0.894146677569721
aF0.8911835015831224
aF0.8867109884642033
aF0.8847043633799788
aF0.8851680542840474
aF0.8900765482726456
aF0.8905249645896863
aF0.885697133158002
aF0.8865717000338379
aF0.8843008729059181
aF0.8878141635128197
aF0.8836594325556905
aF0.8937881621016888
aF0.8897883489487627
aF0.8773039978484107
aF0.887534565551164
aF0.8785971006871278
aF0.8824740026928543
aF0.8840704081593244
aF0.8855058134107724
aF0.891706256306189
aF0.8914952312398607
aF0.8845003679493713
aF0.8941549789963841
aF0.8912527650819453
aF0.8901301582866255
aF0.8806437218054112
aF0.889539681973402
aF0.8875997134634553
aF0.8905966670697328
a.