(lp0
F0.963876847030967
aF0.9672749631626738
aF0.9665328930204453
aF0.9614968926186414
aF0.965591558011104
aF0.9633621968688171
aF0.9640212944864921
aF0.9653916477308172
aF0.961691762777943
aF0.9633200654057482
aF0.9734417874612578
aF0.9673088176515512
aF0.9646735384420808
aF0.9656705286748257
aF0.9713614948844347
aF0.9681226062682038
aF0.9676562869897171
aF0.9654732439029732
aF0.9661187500705651
aF0.9670691433345848
aF0.9676706260536504
aF0.9677961561003138
aF0.9640625560520935
aF0.9696025681170698
aF0.9630944088104392
aF0.9656847486609547
aF0.9666500756276739
aF0.961481635086182
aF0.9658326496531578
aF0.9672312552169873
aF0.9699990146877757
aF0.968909048647541
aF0.9689071211892771
aF0.9660069043299208
aF0.9693103198729385
aF0.9615245470550573
aF0.9664325638948208
aF0.959477633079392
aF0.9655922406450079
aF0.9697564379341791
aF0.9664321038721949
aF0.9696378912951447
aF0.9619598383417073
aF0.965876026842855
aF0.9614389261806088
aF0.9625156438807935
aF0.966341471619774
aF0.9692259292351785
aF0.9653625291820961
aF0.9636976079549437
aF0.9658556228221514
aF0.9640671335520518
aF0.9652411027803778
aF0.9617413491329477
aF0.9647346358620874
aF0.9673732510687498
aF0.9680911038958842
aF0.9641277785297957
aF0.9654088392978969
aF0.9623623283417272
aF0.967038949437796
aF0.9624934485543513
aF0.9674381626556704
aF0.9621457243145626
aF0.9642426149884922
aF0.9670346780203545
aF0.9593000257199219
aF0.9588758399275391
aF0.9654790655282249
aF0.9664162305202127
aF0.9668210113157154
aF0.9678276986428547
aF0.9648339610113242
aF0.967262902854114
aF0.963041078478475
aF0.965687974451306
aF0.9644301843148277
aF0.95925698701251
aF0.963039390499719
aF0.9657690802483838
aF0.9666810887472852
aF0.9648504996201591
aF0.9670503001596605
aF0.9653598987822054
aF0.9702573670648534
aF0.9709227082516768
aF0.9623989117265446
aF0.9646544402129542
aF0.9659620759223462
aF0.9641451751392274
aF0.9710595970690858
aF0.9697363017521292
aF0.9658340019593722
aF0.9667789407432805
aF0.9607072018856765
aF0.9679085468901938
aF0.9693571021320084
aF0.9676649417239107
aF0.9647916978905701
aF0.9667128348444118
aF0.9665767683681092
aF0.9656607961327452
aF0.9651488344544006
aF0.9687337601613829
aF0.967515350573507
aF0.9717192964812666
aF0.9617771157481367
aF0.9659316226097585
aF0.9656458843377754
aF0.9664015101128218
aF0.9636609449108143
aF0.964835080810418
aF0.9506521503168064
aF0.9634527127718119
aF0.9710319983583258
aF0.9690520888727288
aF0.9643814679739204
aF0.9569763592554333
aF0.9608626277679636
aF0.9508088221682124
aF0.969697448169895
aF0.9711752139311
aF0.9658403530249017
aF0.9623731176727204
aF0.9700192306293229
aF0.9654912225876393
aF0.9642045989718412
aF0.964428787713162
aF0.9636652648672495
aF0.9629174841826648
aF0.9620443333343405
aF0.9674733151744322
aF0.9684715941144861
aF0.9689126869696258
aF0.9596951444908884
aF0.9689272856512094
aF0.9689941204948114
aF0.9596726756014343
aF0.9606824173135532
aF0.9660856898469489
aF0.9644839585076999
aF0.9647507236692451
aF0.9668043487546255
aF0.9683158142794259
aF0.9707083351765884
aF0.9681174965833595
aF0.9609099837971921
aF0.9670686009994008
aF0.966105064432323
aF0.9646574783841105
aF0.9705620970004364
aF0.9694735333405896
aF0.9691303980929963
aF0.9711420546533438
aF0.9640799407338063
aF0.9684048720481679
aF0.9639594283336002
aF0.968437445138871
aF0.9685840540968138
aF0.9699796120081643
aF0.9661282037324502
aF0.9659342484728034
aF0.969704701941641
aF0.9682726331973446
aF0.9638908197123759
aF0.9641340983488649
aF0.9618329088805315
aF0.9639287117593125
aF0.9670670392221762
aF0.9617816026049798
aF0.9707387269454681
aF0.9649122772260335
aF0.9628671334966279
aF0.9639226925570997
aF0.9662892729738615
aF0.9665255255350403
aF0.9651995763826816
aF0.9659931643040752
aF0.9667545233216114
aF0.965284219763578
aF0.9688118479759209
aF0.9658695812108136
aF0.9657347228164365
aF0.9650200874823561
aF0.9620550401786793
aF0.9651956691898833
aF0.9651991584716928
aF0.9652888161080615
aF0.9662851954820356
aF0.9634960985369488
aF0.9677460335790705
aF0.9661324209501329
aF0.9708910989054013
aF0.9657670083471015
aF0.9692048542887389
aF0.9711201346420976
aF0.9652416775527044
aF0.9651737371459587
aF0.9693638294511498
aF0.9633051916150237
aF0.9700537538782452
aF0.9690139356010263
aF0.9705935523234084
aF0.9686703429013004
aF0.9691001008083603
aF0.9658757923960962
aF0.9660434963780412
aF0.9684105903620893
aF0.9643996339371531
aF0.9656014819835604
aF0.9682779400938414
aF0.9656386440843823
aF0.9668699576788549
aF0.9641311803035102
aF0.9664299250391357
aF0.9665755035334607
aF0.9652502479370783
aF0.9677219646408022
aF0.9646555872257958
aF0.967775607286634
aF0.9663427283177024
aF0.9676900919318935
aF0.9675266341571623
aF0.9713498134084635
aF0.9600291119363451
aF0.9700118688669347
aF0.9649830304885771
aF0.9650490894381895
aF0.9670743258268026
aF0.9667967714177583
aF0.9616894401719827
aF0.9693041854820278
aF0.9547091745971217
aF0.9626548169916052
aF0.9687732016873204
aF0.9699625465351366
aF0.9644748370485451
aF0.9611293658688385
aF0.955098565497821
aF0.9602346604319436
a.